

Microchip MPLAB XC8 Assembler V3.00 build 20241204225717 
                                                                                               Sat Jun 28 10:37:46 2025

Microchip MPLAB XC8 C Compiler v3.00 (Free license) build 20241204225717 Og1 
     1                           	processor	16F877A
     2                           	pagewidth 120
     3                           	opt	flic
     4                           	psect	idataCOMMON,global,class=CODE,space=0,delta=2,noexec
     5                           	psect	idataBANK0,global,class=CODE,space=0,delta=2,noexec
     6                           	psect	idataBANK1,global,class=CODE,space=0,delta=2,noexec
     7                           	psect	strings,global,class=STRING,space=0,delta=2,noexec
     8                           	psect	stringtext,global,reloc=256,class=STRCODE,space=0,delta=2,noexec
     9                           	psect	cinit,global,class=CODE,space=0,merge=1,delta=2
    10                           	psect	bssCOMMON,global,class=COMMON,space=1,delta=1,noexec
    11                           	psect	dataCOMMON,global,class=COMMON,space=1,delta=1,noexec
    12                           	psect	bssBANK0,global,class=BANK0,space=1,delta=1,noexec
    13                           	psect	dataBANK0,global,class=BANK0,space=1,delta=1,noexec
    14                           	psect	bssBANK1,global,class=BANK1,space=1,delta=1,noexec
    15                           	psect	dataBANK1,global,class=BANK1,space=1,delta=1,noexec
    16                           	psect	inittext,global,class=CODE,space=0,delta=2
    17                           	psect	cstackBANK1,global,class=BANK1,space=1,delta=1,noexec
    18                           	psect	cstackCOMMON,global,class=COMMON,space=1,delta=1,noexec
    19                           	psect	cstackBANK0,global,class=BANK0,space=1,delta=1,noexec
    20                           	psect	maintext,global,class=CODE,space=0,split=1,delta=2
    21                           	psect	text1,local,class=CODE,space=0,merge=1,delta=2
    22                           	psect	text2,local,class=CODE,space=0,merge=1,delta=2
    23                           	psect	text3,local,class=CODE,space=0,merge=1,delta=2
    24                           	psect	text4,local,class=CODE,space=0,merge=1,delta=2
    25                           	psect	text5,local,class=CODE,space=0,merge=1,delta=2
    26                           	psect	text6,local,class=CODE,space=0,merge=1,delta=2
    27                           	psect	text7,local,class=CODE,space=0,merge=1,delta=2,group=1
    28                           	psect	text8,local,class=CODE,space=0,merge=1,delta=2,group=1
    29                           	psect	text9,local,class=CODE,space=0,merge=1,delta=2,group=1
    30                           	psect	text10,local,class=CODE,space=0,merge=1,delta=2,group=1
    31                           	psect	text11,local,class=CODE,space=0,merge=1,delta=2,group=1
    32                           	psect	text12,local,class=CODE,space=0,merge=1,delta=2,group=1
    33                           	psect	text13,local,class=CODE,space=0,merge=1,delta=2,group=1
    34                           	psect	text14,local,class=CODE,space=0,merge=1,delta=2,group=1
    35                           	psect	text15,local,class=CODE,space=0,merge=1,delta=2,group=1
    36                           	psect	text16,local,class=CODE,space=0,merge=1,delta=2,group=1
    37                           	psect	text17,local,class=CODE,space=0,merge=1,delta=2
    38                           	psect	text18,local,class=CODE,space=0,merge=1,delta=2
    39                           	psect	text19,local,class=CODE,space=0,merge=1,delta=2
    40                           	psect	text20,local,class=CODE,space=0,merge=1,delta=2
    41                           	psect	text21,local,class=CODE,space=0,merge=1,delta=2
    42                           	psect	text22,local,class=CODE,space=0,merge=1,delta=2
    43                           	psect	text23,local,class=CODE,space=0,merge=1,delta=2
    44                           	psect	text24,local,class=CODE,space=0,merge=1,delta=2
    45                           	psect	text25,local,class=CODE,space=0,merge=1,delta=2
    46                           	psect	text26,local,class=CODE,space=0,merge=1,delta=2
    47                           	psect	text27,local,class=CODE,space=0,merge=1,delta=2
    48                           	psect	text28,local,class=CODE,space=0,merge=1,delta=2
    49                           	psect	intentry,global,class=CODE,space=0,delta=2
    50                           	psect	config,global,abs,ovrld,class=CONFIG,space=4,delta=2,noexec
    51                           	dabs	1,0x7E,2
    52     0000                     
    53                           ; Generated 12/10/2023 GMT
    54                           ; 
    55                           ; Copyright © 2023, Microchip Technology Inc. and its subsidiaries ("Microchip")
    56                           ; All rights reserved.
    57                           ; 
    58                           ; This software is developed by Microchip Technology Inc. and its subsidiaries ("Microch
      +                          ip").
    59                           ; 
    60                           ; Redistribution and use in source and binary forms, with or without modification, are
    61                           ; permitted provided that the following conditions are met:
    62                           ; 
    63                           ;     1. Redistributions of source code must retain the above copyright notice, this lis
      +                          t of
    64                           ;        conditions and the following disclaimer.
    65                           ; 
    66                           ;     2. Redistributions in binary form must reproduce the above copyright notice, this 
      +                          list
    67                           ;        of conditions and the following disclaimer in the documentation and/or other
    68                           ;        materials provided with the distribution. Publication is not required when
    69                           ;        this file is used in an embedded application.
    70                           ; 
    71                           ;     3. Microchip's name may not be used to endorse or promote products derived from th
      +                          is
    72                           ;        software without specific prior written permission.
    73                           ; 
    74                           ; THIS SOFTWARE IS PROVIDED BY MICROCHIP "AS IS" AND ANY EXPRESS OR IMPLIED WARRANTIES,
    75                           ; INCLUDING, BUT NOT LIMITED TO, THE IMPLIED WARRANTIES OF MERCHANTABILITY AND FITNESS F
      +                          OR
    76                           ; PURPOSE ARE DISCLAIMED.  IN NO EVENT SHALL MICROCHIP BE LIABLE FOR ANY DIRECT, INDIREC
      +                          T,
    77                           ; INCIDENTAL, SPECIAL, EXEMPLARY, OR CONSEQUENTIAL DAMAGES (INCLUDING BUT NOT LIMITED TO
    78                           ; PROCUREMENT OF SUBSTITUTE GOODS OR SERVICES; LOSS OF USE, DATA OR PROFITS; OR BUSINESS
    79                           ; INTERRUPTION) HOWSOEVER CAUSED AND ON ANY THEORY OF LIABILITY, WHETHER IN CONTRACT, ST
      +                          RICT
    80                           ; LIABILITY, OR TORT (INCLUDING NEGLIGENCE OR OTHERWISE) ARISING IN ANY WAY OUT OF THE U
      +                          SE OF
    81                           ; THIS SOFTWARE, EVEN IF ADVISED OF THE POSSIBILITY OF SUCH DAMAGE.
    82                           ; 
    83                           ; 
    84                           ; Code-generator required, PIC16F877A Definitions
    85                           ; 
    86                           ; SFR Addresses
    87     0004                     fsr             equ	4
    88     0004                     fsr0            equ	4
    89     0000                     indf            equ	0
    90     0000                     indf0           equ	0
    91     0002                     pc              equ	2
    92     0002                     pcl             equ	2
    93     000A                     pclath          equ	10
    94     0003                     status          equ	3
    95     0000                     INDF            equ	0	;# 
    96     0001                     TMR0            equ	1	;# 
    97     0002                     PCL             equ	2	;# 
    98     0003                     STATUS          equ	3	;# 
    99     0004                     FSR             equ	4	;# 
   100     0005                     PORTA           equ	5	;# 
   101     0006                     PORTB           equ	6	;# 
   102     0007                     PORTC           equ	7	;# 
   103     0008                     PORTD           equ	8	;# 
   104     0009                     PORTE           equ	9	;# 
   105     000A                     PCLATH          equ	10	;# 
   106     000B                     INTCON          equ	11	;# 
   107     000C                     PIR1            equ	12	;# 
   108     000D                     PIR2            equ	13	;# 
   109     000E                     TMR1            equ	14	;# 
   110     000E                     TMR1L           equ	14	;# 
   111     000F                     TMR1H           equ	15	;# 
   112     0010                     T1CON           equ	16	;# 
   113     0011                     TMR2            equ	17	;# 
   114     0012                     T2CON           equ	18	;# 
   115     0013                     SSPBUF          equ	19	;# 
   116     0014                     SSPCON          equ	20	;# 
   117     0015                     CCPR1           equ	21	;# 
   118     0015                     CCPR1L          equ	21	;# 
   119     0016                     CCPR1H          equ	22	;# 
   120     0017                     CCP1CON         equ	23	;# 
   121     0018                     RCSTA           equ	24	;# 
   122     0019                     TXREG           equ	25	;# 
   123     001A                     RCREG           equ	26	;# 
   124     001B                     CCPR2           equ	27	;# 
   125     001B                     CCPR2L          equ	27	;# 
   126     001C                     CCPR2H          equ	28	;# 
   127     001D                     CCP2CON         equ	29	;# 
   128     001E                     ADRESH          equ	30	;# 
   129     001F                     ADCON0          equ	31	;# 
   130     0081                     OPTION_REG      equ	129	;# 
   131     0085                     TRISA           equ	133	;# 
   132     0086                     TRISB           equ	134	;# 
   133     0087                     TRISC           equ	135	;# 
   134     0088                     TRISD           equ	136	;# 
   135     0089                     TRISE           equ	137	;# 
   136     008C                     PIE1            equ	140	;# 
   137     008D                     PIE2            equ	141	;# 
   138     008E                     PCON            equ	142	;# 
   139     0091                     SSPCON2         equ	145	;# 
   140     0092                     PR2             equ	146	;# 
   141     0093                     SSPADD          equ	147	;# 
   142     0094                     SSPSTAT         equ	148	;# 
   143     0098                     TXSTA           equ	152	;# 
   144     0099                     SPBRG           equ	153	;# 
   145     009C                     CMCON           equ	156	;# 
   146     009D                     CVRCON          equ	157	;# 
   147     009E                     ADRESL          equ	158	;# 
   148     009F                     ADCON1          equ	159	;# 
   149     010C                     EEDATA          equ	268	;# 
   150     010D                     EEADR           equ	269	;# 
   151     010E                     EEDATH          equ	270	;# 
   152     010F                     EEADRH          equ	271	;# 
   153     018C                     EECON1          equ	396	;# 
   154     018D                     EECON2          equ	397	;# 
   155     0000                     INDF            equ	0	;# 
   156     0001                     TMR0            equ	1	;# 
   157     0002                     PCL             equ	2	;# 
   158     0003                     STATUS          equ	3	;# 
   159     0004                     FSR             equ	4	;# 
   160     0005                     PORTA           equ	5	;# 
   161     0006                     PORTB           equ	6	;# 
   162     0007                     PORTC           equ	7	;# 
   163     0008                     PORTD           equ	8	;# 
   164     0009                     PORTE           equ	9	;# 
   165     000A                     PCLATH          equ	10	;# 
   166     000B                     INTCON          equ	11	;# 
   167     000C                     PIR1            equ	12	;# 
   168     000D                     PIR2            equ	13	;# 
   169     000E                     TMR1            equ	14	;# 
   170     000E                     TMR1L           equ	14	;# 
   171     000F                     TMR1H           equ	15	;# 
   172     0010                     T1CON           equ	16	;# 
   173     0011                     TMR2            equ	17	;# 
   174     0012                     T2CON           equ	18	;# 
   175     0013                     SSPBUF          equ	19	;# 
   176     0014                     SSPCON          equ	20	;# 
   177     0015                     CCPR1           equ	21	;# 
   178     0015                     CCPR1L          equ	21	;# 
   179     0016                     CCPR1H          equ	22	;# 
   180     0017                     CCP1CON         equ	23	;# 
   181     0018                     RCSTA           equ	24	;# 
   182     0019                     TXREG           equ	25	;# 
   183     001A                     RCREG           equ	26	;# 
   184     001B                     CCPR2           equ	27	;# 
   185     001B                     CCPR2L          equ	27	;# 
   186     001C                     CCPR2H          equ	28	;# 
   187     001D                     CCP2CON         equ	29	;# 
   188     001E                     ADRESH          equ	30	;# 
   189     001F                     ADCON0          equ	31	;# 
   190     0081                     OPTION_REG      equ	129	;# 
   191     0085                     TRISA           equ	133	;# 
   192     0086                     TRISB           equ	134	;# 
   193     0087                     TRISC           equ	135	;# 
   194     0088                     TRISD           equ	136	;# 
   195     0089                     TRISE           equ	137	;# 
   196     008C                     PIE1            equ	140	;# 
   197     008D                     PIE2            equ	141	;# 
   198     008E                     PCON            equ	142	;# 
   199     0091                     SSPCON2         equ	145	;# 
   200     0092                     PR2             equ	146	;# 
   201     0093                     SSPADD          equ	147	;# 
   202     0094                     SSPSTAT         equ	148	;# 
   203     0098                     TXSTA           equ	152	;# 
   204     0099                     SPBRG           equ	153	;# 
   205     009C                     CMCON           equ	156	;# 
   206     009D                     CVRCON          equ	157	;# 
   207     009E                     ADRESL          equ	158	;# 
   208     009F                     ADCON1          equ	159	;# 
   209     010C                     EEDATA          equ	268	;# 
   210     010D                     EEADR           equ	269	;# 
   211     010E                     EEDATH          equ	270	;# 
   212     010F                     EEADRH          equ	271	;# 
   213     018C                     EECON1          equ	396	;# 
   214     018D                     EECON2          equ	397	;# 
   215     0000                     INDF            equ	0	;# 
   216     0001                     TMR0            equ	1	;# 
   217     0002                     PCL             equ	2	;# 
   218     0003                     STATUS          equ	3	;# 
   219     0004                     FSR             equ	4	;# 
   220     0005                     PORTA           equ	5	;# 
   221     0006                     PORTB           equ	6	;# 
   222     0007                     PORTC           equ	7	;# 
   223     0008                     PORTD           equ	8	;# 
   224     0009                     PORTE           equ	9	;# 
   225     000A                     PCLATH          equ	10	;# 
   226     000B                     INTCON          equ	11	;# 
   227     000C                     PIR1            equ	12	;# 
   228     000D                     PIR2            equ	13	;# 
   229     000E                     TMR1            equ	14	;# 
   230     000E                     TMR1L           equ	14	;# 
   231     000F                     TMR1H           equ	15	;# 
   232     0010                     T1CON           equ	16	;# 
   233     0011                     TMR2            equ	17	;# 
   234     0012                     T2CON           equ	18	;# 
   235     0013                     SSPBUF          equ	19	;# 
   236     0014                     SSPCON          equ	20	;# 
   237     0015                     CCPR1           equ	21	;# 
   238     0015                     CCPR1L          equ	21	;# 
   239     0016                     CCPR1H          equ	22	;# 
   240     0017                     CCP1CON         equ	23	;# 
   241     0018                     RCSTA           equ	24	;# 
   242     0019                     TXREG           equ	25	;# 
   243     001A                     RCREG           equ	26	;# 
   244     001B                     CCPR2           equ	27	;# 
   245     001B                     CCPR2L          equ	27	;# 
   246     001C                     CCPR2H          equ	28	;# 
   247     001D                     CCP2CON         equ	29	;# 
   248     001E                     ADRESH          equ	30	;# 
   249     001F                     ADCON0          equ	31	;# 
   250     0081                     OPTION_REG      equ	129	;# 
   251     0085                     TRISA           equ	133	;# 
   252     0086                     TRISB           equ	134	;# 
   253     0087                     TRISC           equ	135	;# 
   254     0088                     TRISD           equ	136	;# 
   255     0089                     TRISE           equ	137	;# 
   256     008C                     PIE1            equ	140	;# 
   257     008D                     PIE2            equ	141	;# 
   258     008E                     PCON            equ	142	;# 
   259     0091                     SSPCON2         equ	145	;# 
   260     0092                     PR2             equ	146	;# 
   261     0093                     SSPADD          equ	147	;# 
   262     0094                     SSPSTAT         equ	148	;# 
   263     0098                     TXSTA           equ	152	;# 
   264     0099                     SPBRG           equ	153	;# 
   265     009C                     CMCON           equ	156	;# 
   266     009D                     CVRCON          equ	157	;# 
   267     009E                     ADRESL          equ	158	;# 
   268     009F                     ADCON1          equ	159	;# 
   269     010C                     EEDATA          equ	268	;# 
   270     010D                     EEADR           equ	269	;# 
   271     010E                     EEDATH          equ	270	;# 
   272     010F                     EEADRH          equ	271	;# 
   273     018C                     EECON1          equ	396	;# 
   274     018D                     EECON2          equ	397	;# 
   275     0000                     INDF            equ	0	;# 
   276     0001                     TMR0            equ	1	;# 
   277     0002                     PCL             equ	2	;# 
   278     0003                     STATUS          equ	3	;# 
   279     0004                     FSR             equ	4	;# 
   280     0005                     PORTA           equ	5	;# 
   281     0006                     PORTB           equ	6	;# 
   282     0007                     PORTC           equ	7	;# 
   283     0008                     PORTD           equ	8	;# 
   284     0009                     PORTE           equ	9	;# 
   285     000A                     PCLATH          equ	10	;# 
   286     000B                     INTCON          equ	11	;# 
   287     000C                     PIR1            equ	12	;# 
   288     000D                     PIR2            equ	13	;# 
   289     000E                     TMR1            equ	14	;# 
   290     000E                     TMR1L           equ	14	;# 
   291     000F                     TMR1H           equ	15	;# 
   292     0010                     T1CON           equ	16	;# 
   293     0011                     TMR2            equ	17	;# 
   294     0012                     T2CON           equ	18	;# 
   295     0013                     SSPBUF          equ	19	;# 
   296     0014                     SSPCON          equ	20	;# 
   297     0015                     CCPR1           equ	21	;# 
   298     0015                     CCPR1L          equ	21	;# 
   299     0016                     CCPR1H          equ	22	;# 
   300     0017                     CCP1CON         equ	23	;# 
   301     0018                     RCSTA           equ	24	;# 
   302     0019                     TXREG           equ	25	;# 
   303     001A                     RCREG           equ	26	;# 
   304     001B                     CCPR2           equ	27	;# 
   305     001B                     CCPR2L          equ	27	;# 
   306     001C                     CCPR2H          equ	28	;# 
   307     001D                     CCP2CON         equ	29	;# 
   308     001E                     ADRESH          equ	30	;# 
   309     001F                     ADCON0          equ	31	;# 
   310     0081                     OPTION_REG      equ	129	;# 
   311     0085                     TRISA           equ	133	;# 
   312     0086                     TRISB           equ	134	;# 
   313     0087                     TRISC           equ	135	;# 
   314     0088                     TRISD           equ	136	;# 
   315     0089                     TRISE           equ	137	;# 
   316     008C                     PIE1            equ	140	;# 
   317     008D                     PIE2            equ	141	;# 
   318     008E                     PCON            equ	142	;# 
   319     0091                     SSPCON2         equ	145	;# 
   320     0092                     PR2             equ	146	;# 
   321     0093                     SSPADD          equ	147	;# 
   322     0094                     SSPSTAT         equ	148	;# 
   323     0098                     TXSTA           equ	152	;# 
   324     0099                     SPBRG           equ	153	;# 
   325     009C                     CMCON           equ	156	;# 
   326     009D                     CVRCON          equ	157	;# 
   327     009E                     ADRESL          equ	158	;# 
   328     009F                     ADCON1          equ	159	;# 
   329     010C                     EEDATA          equ	268	;# 
   330     010D                     EEADR           equ	269	;# 
   331     010E                     EEDATH          equ	270	;# 
   332     010F                     EEADRH          equ	271	;# 
   333     018C                     EECON1          equ	396	;# 
   334     018D                     EECON2          equ	397	;# 
   335     0000                     INDF            equ	0	;# 
   336     0001                     TMR0            equ	1	;# 
   337     0002                     PCL             equ	2	;# 
   338     0003                     STATUS          equ	3	;# 
   339     0004                     FSR             equ	4	;# 
   340     0005                     PORTA           equ	5	;# 
   341     0006                     PORTB           equ	6	;# 
   342     0007                     PORTC           equ	7	;# 
   343     0008                     PORTD           equ	8	;# 
   344     0009                     PORTE           equ	9	;# 
   345     000A                     PCLATH          equ	10	;# 
   346     000B                     INTCON          equ	11	;# 
   347     000C                     PIR1            equ	12	;# 
   348     000D                     PIR2            equ	13	;# 
   349     000E                     TMR1            equ	14	;# 
   350     000E                     TMR1L           equ	14	;# 
   351     000F                     TMR1H           equ	15	;# 
   352     0010                     T1CON           equ	16	;# 
   353     0011                     TMR2            equ	17	;# 
   354     0012                     T2CON           equ	18	;# 
   355     0013                     SSPBUF          equ	19	;# 
   356     0014                     SSPCON          equ	20	;# 
   357     0015                     CCPR1           equ	21	;# 
   358     0015                     CCPR1L          equ	21	;# 
   359     0016                     CCPR1H          equ	22	;# 
   360     0017                     CCP1CON         equ	23	;# 
   361     0018                     RCSTA           equ	24	;# 
   362     0019                     TXREG           equ	25	;# 
   363     001A                     RCREG           equ	26	;# 
   364     001B                     CCPR2           equ	27	;# 
   365     001B                     CCPR2L          equ	27	;# 
   366     001C                     CCPR2H          equ	28	;# 
   367     001D                     CCP2CON         equ	29	;# 
   368     001E                     ADRESH          equ	30	;# 
   369     001F                     ADCON0          equ	31	;# 
   370     0081                     OPTION_REG      equ	129	;# 
   371     0085                     TRISA           equ	133	;# 
   372     0086                     TRISB           equ	134	;# 
   373     0087                     TRISC           equ	135	;# 
   374     0088                     TRISD           equ	136	;# 
   375     0089                     TRISE           equ	137	;# 
   376     008C                     PIE1            equ	140	;# 
   377     008D                     PIE2            equ	141	;# 
   378     008E                     PCON            equ	142	;# 
   379     0091                     SSPCON2         equ	145	;# 
   380     0092                     PR2             equ	146	;# 
   381     0093                     SSPADD          equ	147	;# 
   382     0094                     SSPSTAT         equ	148	;# 
   383     0098                     TXSTA           equ	152	;# 
   384     0099                     SPBRG           equ	153	;# 
   385     009C                     CMCON           equ	156	;# 
   386     009D                     CVRCON          equ	157	;# 
   387     009E                     ADRESL          equ	158	;# 
   388     009F                     ADCON1          equ	159	;# 
   389     010C                     EEDATA          equ	268	;# 
   390     010D                     EEADR           equ	269	;# 
   391     010E                     EEDATH          equ	270	;# 
   392     010F                     EEADRH          equ	271	;# 
   393     018C                     EECON1          equ	396	;# 
   394     018D                     EECON2          equ	397	;# 
   395     0000                     INDF            equ	0	;# 
   396     0001                     TMR0            equ	1	;# 
   397     0002                     PCL             equ	2	;# 
   398     0003                     STATUS          equ	3	;# 
   399     0004                     FSR             equ	4	;# 
   400     0005                     PORTA           equ	5	;# 
   401     0006                     PORTB           equ	6	;# 
   402     0007                     PORTC           equ	7	;# 
   403     0008                     PORTD           equ	8	;# 
   404     0009                     PORTE           equ	9	;# 
   405     000A                     PCLATH          equ	10	;# 
   406     000B                     INTCON          equ	11	;# 
   407     000C                     PIR1            equ	12	;# 
   408     000D                     PIR2            equ	13	;# 
   409     000E                     TMR1            equ	14	;# 
   410     000E                     TMR1L           equ	14	;# 
   411     000F                     TMR1H           equ	15	;# 
   412     0010                     T1CON           equ	16	;# 
   413     0011                     TMR2            equ	17	;# 
   414     0012                     T2CON           equ	18	;# 
   415     0013                     SSPBUF          equ	19	;# 
   416     0014                     SSPCON          equ	20	;# 
   417     0015                     CCPR1           equ	21	;# 
   418     0015                     CCPR1L          equ	21	;# 
   419     0016                     CCPR1H          equ	22	;# 
   420     0017                     CCP1CON         equ	23	;# 
   421     0018                     RCSTA           equ	24	;# 
   422     0019                     TXREG           equ	25	;# 
   423     001A                     RCREG           equ	26	;# 
   424     001B                     CCPR2           equ	27	;# 
   425     001B                     CCPR2L          equ	27	;# 
   426     001C                     CCPR2H          equ	28	;# 
   427     001D                     CCP2CON         equ	29	;# 
   428     001E                     ADRESH          equ	30	;# 
   429     001F                     ADCON0          equ	31	;# 
   430     0081                     OPTION_REG      equ	129	;# 
   431     0085                     TRISA           equ	133	;# 
   432     0086                     TRISB           equ	134	;# 
   433     0087                     TRISC           equ	135	;# 
   434     0088                     TRISD           equ	136	;# 
   435     0089                     TRISE           equ	137	;# 
   436     008C                     PIE1            equ	140	;# 
   437     008D                     PIE2            equ	141	;# 
   438     008E                     PCON            equ	142	;# 
   439     0091                     SSPCON2         equ	145	;# 
   440     0092                     PR2             equ	146	;# 
   441     0093                     SSPADD          equ	147	;# 
   442     0094                     SSPSTAT         equ	148	;# 
   443     0098                     TXSTA           equ	152	;# 
   444     0099                     SPBRG           equ	153	;# 
   445     009C                     CMCON           equ	156	;# 
   446     009D                     CVRCON          equ	157	;# 
   447     009E                     ADRESL          equ	158	;# 
   448     009F                     ADCON1          equ	159	;# 
   449     010C                     EEDATA          equ	268	;# 
   450     010D                     EEADR           equ	269	;# 
   451     010E                     EEDATH          equ	270	;# 
   452     010F                     EEADRH          equ	271	;# 
   453     018C                     EECON1          equ	396	;# 
   454     018D                     EECON2          equ	397	;# 
   455     0000                     INDF            equ	0	;# 
   456     0001                     TMR0            equ	1	;# 
   457     0002                     PCL             equ	2	;# 
   458     0003                     STATUS          equ	3	;# 
   459     0004                     FSR             equ	4	;# 
   460     0005                     PORTA           equ	5	;# 
   461     0006                     PORTB           equ	6	;# 
   462     0007                     PORTC           equ	7	;# 
   463     0008                     PORTD           equ	8	;# 
   464     0009                     PORTE           equ	9	;# 
   465     000A                     PCLATH          equ	10	;# 
   466     000B                     INTCON          equ	11	;# 
   467     000C                     PIR1            equ	12	;# 
   468     000D                     PIR2            equ	13	;# 
   469     000E                     TMR1            equ	14	;# 
   470     000E                     TMR1L           equ	14	;# 
   471     000F                     TMR1H           equ	15	;# 
   472     0010                     T1CON           equ	16	;# 
   473     0011                     TMR2            equ	17	;# 
   474     0012                     T2CON           equ	18	;# 
   475     0013                     SSPBUF          equ	19	;# 
   476     0014                     SSPCON          equ	20	;# 
   477     0015                     CCPR1           equ	21	;# 
   478     0015                     CCPR1L          equ	21	;# 
   479     0016                     CCPR1H          equ	22	;# 
   480     0017                     CCP1CON         equ	23	;# 
   481     0018                     RCSTA           equ	24	;# 
   482     0019                     TXREG           equ	25	;# 
   483     001A                     RCREG           equ	26	;# 
   484     001B                     CCPR2           equ	27	;# 
   485     001B                     CCPR2L          equ	27	;# 
   486     001C                     CCPR2H          equ	28	;# 
   487     001D                     CCP2CON         equ	29	;# 
   488     001E                     ADRESH          equ	30	;# 
   489     001F                     ADCON0          equ	31	;# 
   490     0081                     OPTION_REG      equ	129	;# 
   491     0085                     TRISA           equ	133	;# 
   492     0086                     TRISB           equ	134	;# 
   493     0087                     TRISC           equ	135	;# 
   494     0088                     TRISD           equ	136	;# 
   495     0089                     TRISE           equ	137	;# 
   496     008C                     PIE1            equ	140	;# 
   497     008D                     PIE2            equ	141	;# 
   498     008E                     PCON            equ	142	;# 
   499     0091                     SSPCON2         equ	145	;# 
   500     0092                     PR2             equ	146	;# 
   501     0093                     SSPADD          equ	147	;# 
   502     0094                     SSPSTAT         equ	148	;# 
   503     0098                     TXSTA           equ	152	;# 
   504     0099                     SPBRG           equ	153	;# 
   505     009C                     CMCON           equ	156	;# 
   506     009D                     CVRCON          equ	157	;# 
   507     009E                     ADRESL          equ	158	;# 
   508     009F                     ADCON1          equ	159	;# 
   509     010C                     EEDATA          equ	268	;# 
   510     010D                     EEADR           equ	269	;# 
   511     010E                     EEDATH          equ	270	;# 
   512     010F                     EEADRH          equ	271	;# 
   513     018C                     EECON1          equ	396	;# 
   514     018D                     EECON2          equ	397	;# 
   515                           
   516                           	psect	idataCOMMON
   517     0003                     __pidataCOMMON:
   518                           
   519                           ;initializer for read_digital_keypad@once
   520     0003  3401               	retlw	1
   521                           
   522                           	psect	idataBANK0
   523     07FD                     __pidataBANK0:
   524                           
   525                           ;initializer for read_digital_keypad@longpressed
   526     07FD  3401               	retlw	1
   527                           
   528                           ;initializer for _reset_flag
   529     07FE  3411               	retlw	17
   530                           
   531                           ;initializer for _operational_mode
   532     07FF  3401               	retlw	1
   533                           
   534                           	psect	idataBANK1
   535     1468                     __pidataBANK1:
   536                           
   537                           ;initializer for _washing_program
   538     1468  344B               	retlw	low (STR_7| (0+32768))
   539     1469  3491               	retlw	high (STR_7| (0+32768))
   540     146A  3451               	retlw	low (STR_8| (0+32768))
   541     146B  3491               	retlw	high (STR_8| (0+32768))
   542     146C  34DA               	retlw	low (STR_9| (0+32768))
   543     146D  3490               	retlw	high (STR_9| (0+32768))
   544     146E  342C               	retlw	low (STR_10| (0+32768))
   545     146F  3491               	retlw	high (STR_10| (0+32768))
   546     1470  34B9               	retlw	low (STR_11| (0+32768))
   547     1471  3490               	retlw	high (STR_11| (0+32768))
   548     1472  34A2               	retlw	low (STR_12| (0+32768))
   549     1473  3490               	retlw	high (STR_12| (0+32768))
   550     1474  341D               	retlw	low (STR_13| (0+32768))
   551     1475  3491               	retlw	high (STR_13| (0+32768))
   552     1476  34C4               	retlw	low (STR_14| (0+32768))
   553     1477  3490               	retlw	high (STR_14| (0+32768))
   554     1478  34EE               	retlw	low (STR_15| (0+32768))
   555     1479  3490               	retlw	high (STR_15| (0+32768))
   556     147A  340B               	retlw	low (STR_16| (0+32768))
   557     147B  3491               	retlw	high (STR_16| (0+32768))
   558     147C  34E4               	retlw	low (STR_17| (0+32768))
   559     147D  3490               	retlw	high (STR_17| (0+32768))
   560     147E  34AE               	retlw	low (STR_18| (0+32768))
   561     147F  3490               	retlw	high (STR_18| (0+32768))
   562                           
   563                           ;initializer for _water_level
   564     1480  3466               	retlw	low (STR_19| (0+32768))
   565     1481  3491               	retlw	high (STR_19| (0+32768))
   566     1482  346B               	retlw	low (STR_20| (0+32768))
   567     1483  3491               	retlw	high (STR_20| (0+32768))
   568     1484  3425               	retlw	low (STR_21| (0+32768))
   569     1485  3491               	retlw	high (STR_21| (0+32768))
   570     1486  345C               	retlw	low (STR_22| (0+32768))
   571     1487  3491               	retlw	high (STR_22| (0+32768))
   572     1488  346F               	retlw	low (STR_23| (0+32768))
   573     1489  3491               	retlw	high (STR_23| (0+32768))
   574     0006                     _PORTB          set	6
   575     0008                     _PORTD          set	8
   576     0030                     _RB0            set	48
   577     0061                     _TMR2IF         set	97
   578     004A                     _RE2            set	74
   579     0049                     _RE1            set	73
   580     0092                     _TMR2ON         set	146
   581     003A                     _RC2            set	58
   582     0039                     _RC1            set	57
   583     005E                     _PEIE           set	94
   584     005F                     _GIE            set	95
   585     0092                     _PR2            set	146
   586     0086                     _TRISB          set	134
   587     0088                     _TRISD          set	136
   588     0461                     _TMR2IE         set	1121
   589     0449                     _TRISE1         set	1097
   590     044A                     _TRISE2         set	1098
   591     043A                     _TRISC2         set	1082
   592     0439                     _TRISC1         set	1081
   593                           
   594                           	psect	strings
   595     1173                     __pstrings:
   596     1173                     stringtab:
   597     1173                     __stringtab:
   598                           
   599                           ;	String table - string pointers are 2 bytes each
   600     1173  1BFF               	btfsc	btemp+1,7
   601     1174  297D               	ljmp	stringcode
   602     1175  1383               	bcf	3,7
   603     1176  187F               	btfsc	btemp+1,0
   604     1177  1783               	bsf	3,7
   605     1178  0800               	movf	0,w
   606     1179  0A84               	incf	4,f
   607     117A  1903               	skipnz
   608     117B  0AFF               	incf	btemp+1,f
   609     117C  0008               	return
   610     117D                     stringcode:
   611     117D  087F               	movf	btemp+1,w
   612     117E  397F               	andlw	127
   613     117F  008A               	movwf	10
   614     1180  0804               	movf	4,w
   615     1181  0A84               	incf	4,f
   616     1182  1903               	skipnz
   617     1183  0AFF               	incf	btemp+1,f
   618     1184  0082               	movwf	2
   619     1185                     __stringbase:
   620     1185                     __end_of__stringtab:
   621                           
   622                           	psect	stringtext
   623     1000                     __pstringtext:
   624     1000                     STR_43:
   625     1000  3450               	retlw	80	;'P'
   626     1001  346C               	retlw	108	;'l'
   627     1002  3465               	retlw	101	;'e'
   628     1003  3461               	retlw	97	;'a'
   629     1004  3473               	retlw	115	;'s'
   630     1005  3465               	retlw	101	;'e'
   631     1006  3420               	retlw	32	;' '
   632     1007  3463               	retlw	99	;'c'
   633     1008  346C               	retlw	108	;'l'
   634     1009  346F               	retlw	111	;'o'
   635     100A  3473               	retlw	115	;'s'
   636     100B  3465               	retlw	101	;'e'
   637     100C  3420               	retlw	32	;' '
   638     100D  3464               	retlw	100	;'d'
   639     100E  346F               	retlw	111	;'o'
   640     100F  346F               	retlw	111	;'o'
   641     1010  3472               	retlw	114	;'r'
   642     1011  3400               	retlw	0
   643     1012                     STR_32:
   644     1012  3435               	retlw	53	;'5'
   645     1013  343A               	retlw	58	;':'
   646     1014  3453               	retlw	83	;'S'
   647     1015  3454               	retlw	84	;'T'
   648     1016  3441               	retlw	65	;'A'
   649     1017  3452               	retlw	82	;'R'
   650     1018  3454               	retlw	84	;'T'
   651     1019  3420               	retlw	32	;' '
   652     101A  3436               	retlw	54	;'6'
   653     101B  343A               	retlw	58	;':'
   654     101C  3450               	retlw	80	;'P'
   655     101D  3441               	retlw	65	;'A'
   656     101E  3455               	retlw	85	;'U'
   657     101F  3453               	retlw	83	;'S'
   658     1020  3445               	retlw	69	;'E'
   659     1021  3400               	retlw	0
   660     1022                     STR_40:
   661     1022  3450               	retlw	80	;'P'
   662     1023  3472               	retlw	114	;'r'
   663     1024  346F               	retlw	111	;'o'
   664     1025  3467               	retlw	103	;'g'
   665     1026  346D               	retlw	109	;'m'
   666     1027  3420               	retlw	32	;' '
   667     1028  3463               	retlw	99	;'c'
   668     1029  346F               	retlw	111	;'o'
   669     102A  346D               	retlw	109	;'m'
   670     102B  3470               	retlw	112	;'p'
   671     102C  346C               	retlw	108	;'l'
   672     102D  3465               	retlw	101	;'e'
   673     102E  3474               	retlw	116	;'t'
   674     102F  3465               	retlw	101	;'e'
   675     1030  3464               	retlw	100	;'d'
   676     1031  3400               	retlw	0
   677     1032                     STR_26:
   678     1032  3477               	retlw	119	;'w'
   679     1033  3461               	retlw	97	;'a'
   680     1034  3473               	retlw	115	;'s'
   681     1035  3468               	retlw	104	;'h'
   682     1036  3469               	retlw	105	;'i'
   683     1037  346E               	retlw	110	;'n'
   684     1038  3467               	retlw	103	;'g'
   685     1039  3420               	retlw	32	;' '
   686     103A  3470               	retlw	112	;'p'
   687     103B  3472               	retlw	114	;'r'
   688     103C  346F               	retlw	111	;'o'
   689     103D  3467               	retlw	103	;'g'
   690     103E  3472               	retlw	114	;'r'
   691     103F  3461               	retlw	97	;'a'
   692     1040  346D               	retlw	109	;'m'
   693     1041  3400               	retlw	0
   694     1042                     STR_3:
   695     1042  3457               	retlw	87	;'W'
   696     1043  3461               	retlw	97	;'a'
   697     1044  3473               	retlw	115	;'s'
   698     1045  3468               	retlw	104	;'h'
   699     1046  3469               	retlw	105	;'i'
   700     1047  346E               	retlw	110	;'n'
   701     1048  3467               	retlw	103	;'g'
   702     1049  3420               	retlw	32	;' '
   703     104A  344D               	retlw	77	;'M'
   704     104B  3461               	retlw	97	;'a'
   705     104C  3463               	retlw	99	;'c'
   706     104D  3468               	retlw	104	;'h'
   707     104E  3469               	retlw	105	;'i'
   708     104F  346E               	retlw	110	;'n'
   709     1050  3465               	retlw	101	;'e'
   710     1051  3400               	retlw	0
   711     1052                     STR_41:
   712     1052  3452               	retlw	82	;'R'
   713     1053  3465               	retlw	101	;'e'
   714     1054  346D               	retlw	109	;'m'
   715     1055  346F               	retlw	111	;'o'
   716     1056  3476               	retlw	118	;'v'
   717     1057  3465               	retlw	101	;'e'
   718     1058  3420               	retlw	32	;' '
   719     1059  3463               	retlw	99	;'c'
   720     105A  346C               	retlw	108	;'l'
   721     105B  346F               	retlw	111	;'o'
   722     105C  3474               	retlw	116	;'t'
   723     105D  3468               	retlw	104	;'h'
   724     105E  3473               	retlw	115	;'s'
   725     105F  3400               	retlw	0
   726     1060                     STR_1:
   727     1060  3470               	retlw	112	;'p'
   728     1061  3472               	retlw	114	;'r'
   729     1062  3465               	retlw	101	;'e'
   730     1063  3473               	retlw	115	;'s'
   731     1064  3473               	retlw	115	;'s'
   732     1065  3420               	retlw	32	;' '
   733     1066  346B               	retlw	107	;'k'
   734     1067  3465               	retlw	101	;'e'
   735     1068  3479               	retlw	121	;'y'
   736     1069  3435               	retlw	53	;'5'
   737     106A  3420               	retlw	32	;' '
   738     106B  3474               	retlw	116	;'t'
   739     106C  346F               	retlw	111	;'o'
   740     106D  3400               	retlw	0
   741     106E                     STR_24:
   742     106E  3450               	retlw	80	;'P'
   743     106F  346F               	retlw	111	;'o'
   744     1070  3477               	retlw	119	;'w'
   745     1071  3465               	retlw	101	;'e'
   746     1072  3472               	retlw	114	;'r'
   747     1073  3469               	retlw	105	;'i'
   748     1074  346E               	retlw	110	;'n'
   749     1075  3467               	retlw	103	;'g'
   750     1076  3420               	retlw	32	;' '
   751     1077  346F               	retlw	111	;'o'
   752     1078  346E               	retlw	110	;'n'
   753     1079  3420               	retlw	32	;' '
   754     107A  3400               	retlw	0
   755     107B                     STR_27:
   756     107B  3457               	retlw	87	;'W'
   757     107C  3441               	retlw	65	;'A'
   758     107D  3454               	retlw	84	;'T'
   759     107E  3445               	retlw	69	;'E'
   760     107F  3452               	retlw	82	;'R'
   761     1080  345F               	retlw	95	;'_'
   762     1081  344C               	retlw	76	;'L'
   763     1082  3445               	retlw	69	;'E'
   764     1083  3456               	retlw	86	;'V'
   765     1084  3445               	retlw	69	;'E'
   766     1085  344C               	retlw	76	;'L'
   767     1086  343A               	retlw	58	;':'
   768     1087  3400               	retlw	0
   769     1088                     STR_42:
   770     1088  3444               	retlw	68	;'D'
   771     1089  346F               	retlw	111	;'o'
   772     108A  346F               	retlw	111	;'o'
   773     108B  3472               	retlw	114	;'r'
   774     108C  3420               	retlw	32	;' '
   775     108D  3469               	retlw	105	;'i'
   776     108E  3473               	retlw	115	;'s'
   777     108F  3420               	retlw	32	;' '
   778     1090  346F               	retlw	111	;'o'
   779     1091  3470               	retlw	112	;'p'
   780     1092  3465               	retlw	101	;'e'
   781     1093  346E               	retlw	110	;'n'
   782     1094  3400               	retlw	0
   783     1095                     STR_4:
   784     1095  3470               	retlw	112	;'p'
   785     1096  3472               	retlw	114	;'r'
   786     1097  3465               	retlw	101	;'e'
   787     1098  3473               	retlw	115	;'s'
   788     1099  3473               	retlw	115	;'s'
   789     109A  3420               	retlw	32	;' '
   790     109B  3453               	retlw	83	;'S'
   791     109C  3477               	retlw	119	;'w'
   792     109D  3469               	retlw	105	;'i'
   793     109E  3474               	retlw	116	;'t'
   794     109F  3463               	retlw	99	;'c'
   795     10A0  3468               	retlw	104	;'h'
   796     10A1  3400               	retlw	0
   797     10A2                     STR_12:
   798     10A2  3445               	retlw	69	;'E'
   799     10A3  3463               	retlw	99	;'c'
   800     10A4  346F               	retlw	111	;'o'
   801     10A5  3420               	retlw	32	;' '
   802     10A6  3463               	retlw	99	;'c'
   803     10A7  346F               	retlw	111	;'o'
   804     10A8  3474               	retlw	116	;'t'
   805     10A9  3474               	retlw	116	;'t'
   806     10AA  346F               	retlw	111	;'o'
   807     10AB  346E               	retlw	110	;'n'
   808     10AC  3473               	retlw	115	;'s'
   809     10AD  3400               	retlw	0
   810     10AE                     STR_18:
   811     10AE  3441               	retlw	65	;'A'
   812     10AF  3471               	retlw	113	;'q'
   813     10B0  3475               	retlw	117	;'u'
   814     10B1  3461               	retlw	97	;'a'
   815     10B2  3420               	retlw	32	;' '
   816     10B3  3473               	retlw	115	;'s'
   817     10B4  3474               	retlw	116	;'t'
   818     10B5  346F               	retlw	111	;'o'
   819     10B6  3472               	retlw	114	;'r'
   820     10B7  3465               	retlw	101	;'e'
   821     10B8  3400               	retlw	0
   822     10B9                     STR_11:
   823     10B9  3453               	retlw	83	;'S'
   824     10BA  3474               	retlw	116	;'t'
   825     10BB  3461               	retlw	97	;'a'
   826     10BC  3469               	retlw	105	;'i'
   827     10BD  346E               	retlw	110	;'n'
   828     10BE  3420               	retlw	32	;' '
   829     10BF  3477               	retlw	119	;'w'
   830     10C0  3461               	retlw	97	;'a'
   831     10C1  3473               	retlw	115	;'s'
   832     10C2  3468               	retlw	104	;'h'
   833     10C3  3400               	retlw	0
   834     10C4                     STR_14:
   835     10C4  3442               	retlw	66	;'B'
   836     10C5  3465               	retlw	101	;'e'
   837     10C6  3464               	retlw	100	;'d'
   838     10C7  3420               	retlw	32	;' '
   839     10C8  3473               	retlw	115	;'s'
   840     10C9  3468               	retlw	104	;'h'
   841     10CA  3465               	retlw	101	;'e'
   842     10CB  3465               	retlw	101	;'e'
   843     10CC  3474               	retlw	116	;'t'
   844     10CD  3473               	retlw	115	;'s'
   845     10CE  3400               	retlw	0
   846     10CF                     STR_5:
   847     10CF  3453               	retlw	83	;'S'
   848     10D0  3457               	retlw	87	;'W'
   849     10D1  3435               	retlw	53	;'5'
   850     10D2  343A               	retlw	58	;':'
   851     10D3  3420               	retlw	32	;' '
   852     10D4  3453               	retlw	83	;'S'
   853     10D5  3454               	retlw	84	;'T'
   854     10D6  3441               	retlw	65	;'A'
   855     10D7  3452               	retlw	82	;'R'
   856     10D8  3454               	retlw	84	;'T'
   857     10D9  3400               	retlw	0
   858     10DA                     STR_9:
   859     10DA  3444               	retlw	68	;'D'
   860     10DB  3465               	retlw	101	;'e'
   861     10DC  346C               	retlw	108	;'l'
   862     10DD  3469               	retlw	105	;'i'
   863     10DE  3463               	retlw	99	;'c'
   864     10DF  3461               	retlw	97	;'a'
   865     10E0  3474               	retlw	116	;'t'
   866     10E1  3465               	retlw	101	;'e'
   867     10E2  3473               	retlw	115	;'s'
   868     10E3  3400               	retlw	0
   869     10E4                     STR_17:
   870     10E4  3477               	retlw	119	;'w'
   871     10E5  3461               	retlw	97	;'a'
   872     10E6  3473               	retlw	115	;'s'
   873     10E7  3468               	retlw	104	;'h'
   874     10E8  3420               	retlw	32	;' '
   875     10E9  346F               	retlw	111	;'o'
   876     10EA  346E               	retlw	110	;'n'
   877     10EB  346C               	retlw	108	;'l'
   878     10EC  3479               	retlw	121	;'y'
   879     10ED  3400               	retlw	0
   880     10EE                     STR_15:
   881     10EE  3452               	retlw	82	;'R'
   882     10EF  3469               	retlw	105	;'i'
   883     10F0  346E               	retlw	110	;'n'
   884     10F1  3473               	retlw	115	;'s'
   885     10F2  3465               	retlw	101	;'e'
   886     10F3  342B               	retlw	43	;'+'
   887     10F4  3464               	retlw	100	;'d'
   888     10F5  3472               	retlw	114	;'r'
   889     10F6  3479               	retlw	121	;'y'
   890     10F7  3400               	retlw	0
   891     10F8                     STR_6:
   892     10F8  3453               	retlw	83	;'S'
   893     10F9  3457               	retlw	87	;'W'
   894     10FA  3436               	retlw	54	;'6'
   895     10FB  343A               	retlw	58	;':'
   896     10FC  3420               	retlw	32	;' '
   897     10FD  3453               	retlw	83	;'S'
   898     10FE  3454               	retlw	84	;'T'
   899     10FF  344F               	retlw	79	;'O'
   900     1100  3450               	retlw	80	;'P'
   901     1101  3400               	retlw	0
   902     1102                     STR_30:
   903     1102  3446               	retlw	70	;'F'
   904     1103  3475               	retlw	117	;'u'
   905     1104  346E               	retlw	110	;'n'
   906     1105  3463               	retlw	99	;'c'
   907     1106  3474               	retlw	116	;'t'
   908     1107  3469               	retlw	105	;'i'
   909     1108  346F               	retlw	111	;'o'
   910     1109  346E               	retlw	110	;'n'
   911     110A  3400               	retlw	0
   912     110B                     STR_16:
   913     110B  3444               	retlw	68	;'D'
   914     110C  3472               	retlw	114	;'r'
   915     110D  3479               	retlw	121	;'y'
   916     110E  3420               	retlw	32	;' '
   917     110F  346F               	retlw	111	;'o'
   918     1110  346E               	retlw	110	;'n'
   919     1111  346C               	retlw	108	;'l'
   920     1112  3479               	retlw	121	;'y'
   921     1113  3400               	retlw	0
   922     1114                     STR_2:
   923     1114  3470               	retlw	112	;'p'
   924     1115  346F               	retlw	111	;'o'
   925     1116  3477               	retlw	119	;'w'
   926     1117  3465               	retlw	101	;'e'
   927     1118  3472               	retlw	114	;'r'
   928     1119  3420               	retlw	32	;' '
   929     111A  346F               	retlw	111	;'o'
   930     111B  346E               	retlw	110	;'n'
   931     111C  3400               	retlw	0
   932     111D                     STR_13:
   933     111D  3457               	retlw	87	;'W'
   934     111E  346F               	retlw	111	;'o'
   935     111F  346F               	retlw	111	;'o'
   936     1120  346C               	retlw	108	;'l'
   937     1121  3465               	retlw	101	;'e'
   938     1122  346E               	retlw	110	;'n'
   939     1123  3473               	retlw	115	;'s'
   940     1124  3400               	retlw	0
   941     1125                     STR_21:
   942     1125  344D               	retlw	77	;'M'
   943     1126  3465               	retlw	101	;'e'
   944     1127  3464               	retlw	100	;'d'
   945     1128  3469               	retlw	105	;'i'
   946     1129  3475               	retlw	117	;'u'
   947     112A  346D               	retlw	109	;'m'
   948     112B  3400               	retlw	0
   949     112C                     STR_10:
   950     112C  3457               	retlw	87	;'W'
   951     112D  3468               	retlw	104	;'h'
   952     112E  3469               	retlw	105	;'i'
   953     112F  3474               	retlw	116	;'t'
   954     1130  3465               	retlw	101	;'e'
   955     1131  3473               	retlw	115	;'s'
   956     1132  3400               	retlw	0
   957     1133                     STR_35:
   958     1133  3453               	retlw	83	;'S'
   959     1134  3470               	retlw	112	;'p'
   960     1135  3469               	retlw	105	;'i'
   961     1136  346E               	retlw	110	;'n'
   962     1137  3420               	retlw	32	;' '
   963     1138  3400               	retlw	0
   964     1139                     STR_29:
   965     1139  3454               	retlw	84	;'T'
   966     113A  3469               	retlw	105	;'i'
   967     113B  346D               	retlw	109	;'m'
   968     113C  3465               	retlw	101	;'e'
   969     113D  343A               	retlw	58	;':'
   970     113E  3400               	retlw	0
   971     113F                     STR_28:
   972     113F  3450               	retlw	80	;'P'
   973     1140  3472               	retlw	114	;'r'
   974     1141  346F               	retlw	111	;'o'
   975     1142  3467               	retlw	103	;'g'
   976     1143  343A               	retlw	58	;':'
   977     1144  3400               	retlw	0
   978     1145                     STR_34:
   979     1145  3452               	retlw	82	;'R'
   980     1146  3469               	retlw	105	;'i'
   981     1147  346E               	retlw	110	;'n'
   982     1148  3473               	retlw	115	;'s'
   983     1149  3465               	retlw	101	;'e'
   984     114A  3400               	retlw	0
   985     114B                     STR_7:
   986     114B  3444               	retlw	68	;'D'
   987     114C  3461               	retlw	97	;'a'
   988     114D  3469               	retlw	105	;'i'
   989     114E  346C               	retlw	108	;'l'
   990     114F  3479               	retlw	121	;'y'
   991     1150  3400               	retlw	0
   992     1151                     STR_8:
   993     1151  3448               	retlw	72	;'H'
   994     1152  3465               	retlw	101	;'e'
   995     1153  3461               	retlw	97	;'a'
   996     1154  3476               	retlw	118	;'v'
   997     1155  3479               	retlw	121	;'y'
   998     1156  3400               	retlw	0
   999     1157                     STR_31:
  1000     1157  3454               	retlw	84	;'T'
  1001     1158  3469               	retlw	105	;'i'
  1002     1159  346D               	retlw	109	;'m'
  1003     115A  3465               	retlw	101	;'e'
  1004     115B  3400               	retlw	0
  1005     115C                     STR_22:
  1006     115C  3468               	retlw	104	;'h'
  1007     115D  3469               	retlw	105	;'i'
  1008     115E  3467               	retlw	103	;'g'
  1009     115F  3468               	retlw	104	;'h'
  1010     1160  3400               	retlw	0
  1011     1161                     STR_33:
  1012     1161  3457               	retlw	87	;'W'
  1013     1162  3461               	retlw	97	;'a'
  1014     1163  3473               	retlw	115	;'s'
  1015     1164  3468               	retlw	104	;'h'
  1016     1165  3400               	retlw	0
  1017     1166                     STR_19:
  1018     1166  3441               	retlw	65	;'A'
  1019     1167  3475               	retlw	117	;'u'
  1020     1168  3474               	retlw	116	;'t'
  1021     1169  346F               	retlw	111	;'o'
  1022     116A  3400               	retlw	0
  1023     116B                     STR_20:
  1024     116B  344C               	retlw	76	;'L'
  1025     116C  346F               	retlw	111	;'o'
  1026     116D  3477               	retlw	119	;'w'
  1027     116E  3400               	retlw	0
  1028     116F                     STR_23:
  1029     116F  344D               	retlw	77	;'M'
  1030     1170  3461               	retlw	97	;'a'
  1031     1171  3478               	retlw	120	;'x'
  1032     1172  3400               	retlw	0
  1033     1102                     STR_44          equ	STR_30
  1034     10BF                     STR_39          equ	STR_11+6
  1035     1145                     STR_36          equ	STR_34
  1036     1042                     STR_25          equ	STR_3
  1037     1157                     STR_45          equ	STR_31
  1038     1012                     STR_46          equ	STR_32
  1039     1133                     STR_37          equ	STR_35
  1040     1133                     STR_38          equ	STR_35
  1041                           
  1042                           	psect	cinit
  1043     000F                     start_initialization:	
  1044                           ; #config settings
  1045                           
  1046     000F                     __initialization:
  1047                           
  1048                           ; Initialize objects allocated to BANK1
  1049     000F  1383               	bcf	3,7	;select IRP bank0
  1050     0010  30C2               	movlw	low (__pdataBANK1+34)
  1051     0011  00FD               	movwf	btemp+-1
  1052     0012  3014               	movlw	high __pidataBANK1
  1053     0013  00FE               	movwf	btemp
  1054     0014  3068               	movlw	low __pidataBANK1
  1055     0015  00FF               	movwf	btemp+1
  1056     0016  30A0               	movlw	low __pdataBANK1
  1057     0017  0084               	movwf	4
  1058     0018  160A  118A  242D  120A  118A  	fcall	init_ram0
  1059                           
  1060                           ; Initialize objects allocated to BANK0
  1061     001D  306D               	movlw	low (__pdataBANK0+3)
  1062     001E  00FD               	movwf	btemp+-1
  1063     001F  3007               	movlw	high __pidataBANK0
  1064     0020  00FE               	movwf	btemp
  1065     0021  30FD               	movlw	low __pidataBANK0
  1066     0022  00FF               	movwf	btemp+1
  1067     0023  306A               	movlw	low __pdataBANK0
  1068     0024  0084               	movwf	4
  1069     0025  160A  118A  242D  120A  118A  	fcall	init_ram0
  1070                           
  1071                           ; Initialize objects allocated to COMMON
  1072     002A  120A  118A  2003  120A  118A  	fcall	__pidataCOMMON	;fetch initializer
  1073     002F  00FB               	movwf	__pdataCOMMON& (0+127)
  1074                           
  1075                           ; Clear objects allocated to BANK1
  1076     0030  1683               	bsf	3,5	;RP0=1, select bank1
  1077     0031  1303               	bcf	3,6	;RP1=0, select bank1
  1078     0032  01C2               	clrf	__pbssBANK1& (0+127)
  1079     0033  01C3               	clrf	(__pbssBANK1+1)& (0+127)
  1080     0034  01C4               	clrf	(__pbssBANK1+2)& (0+127)
  1081     0035  01C5               	clrf	(__pbssBANK1+3)& (0+127)
  1082     0036  01C6               	clrf	(__pbssBANK1+4)& (0+127)
  1083     0037  01C7               	clrf	(__pbssBANK1+5)& (0+127)
  1084     0038  01C8               	clrf	(__pbssBANK1+6)& (0+127)
  1085     0039  01C9               	clrf	(__pbssBANK1+7)& (0+127)
  1086     003A  01CA               	clrf	(__pbssBANK1+8)& (0+127)
  1087     003B  01CB               	clrf	(__pbssBANK1+9)& (0+127)
  1088                           
  1089                           ; Clear objects allocated to BANK0
  1090     003C  1283               	bcf	3,5	;RP0=0, select bank0
  1091     003D  1303               	bcf	3,6	;RP1=0, select bank0
  1092     003E  01E3               	clrf	__pbssBANK0& (0+127)
  1093     003F  01E4               	clrf	(__pbssBANK0+1)& (0+127)
  1094     0040  01E5               	clrf	(__pbssBANK0+2)& (0+127)
  1095     0041  01E6               	clrf	(__pbssBANK0+3)& (0+127)
  1096     0042  01E7               	clrf	(__pbssBANK0+4)& (0+127)
  1097     0043  01E8               	clrf	(__pbssBANK0+5)& (0+127)
  1098     0044  01E9               	clrf	(__pbssBANK0+6)& (0+127)
  1099                           
  1100                           ; Clear objects allocated to COMMON
  1101     0045  01F9               	clrf	__pbssCOMMON& (0+127)
  1102     0046  01FA               	clrf	(__pbssCOMMON+1)& (0+127)
  1103     0047                     end_of_initialization:	
  1104                           ;End of C runtime variable initialization code
  1105                           
  1106     0047                     __end_of__initialization:
  1107     0047  0183               	clrf	3
  1108     0048  120A  158A  2ADE   	ljmp	_main	;jump to C main() function
  1109                           
  1110                           	psect	bssCOMMON
  1111     0079                     __pbssCOMMON:
  1112     0079                     _level:
  1113     0079                     	ds	1
  1114     007A                     _program_no:
  1115     007A                     	ds	1
  1116                           
  1117                           	psect	dataCOMMON
  1118     007B                     __pdataCOMMON:
  1119     007B                     read_digital_keypad@once:
  1120     007B                     	ds	1
  1121                           
  1122                           	psect	bssBANK0
  1123     0063                     __pbssBANK0:
  1124     0063                     _time:
  1125     0063                     	ds	2
  1126     0065                     _total_time:
  1127     0065                     	ds	2
  1128     0067                     _min:
  1129     0067                     	ds	1
  1130     0068                     _sec:
  1131     0068                     	ds	1
  1132     0069                     read_digital_keypad@pre_key:
  1133     0069                     	ds	1
  1134                           
  1135                           	psect	dataBANK0
  1136     006A                     __pdataBANK0:
  1137     006A                     read_digital_keypad@longpressed:
  1138     006A                     	ds	1
  1139     006B                     _reset_flag:
  1140     006B                     	ds	1
  1141     006C                     _operational_mode:
  1142     006C                     	ds	1
  1143                           
  1144                           	psect	bssBANK1
  1145     00C2                     __pbssBANK1:
  1146     00C2                     isr@count:
  1147     00C2                     	ds	4
  1148     00C6                     _spin_time:
  1149     00C6                     	ds	2
  1150     00C8                     _rinse_time:
  1151     00C8                     	ds	2
  1152     00CA                     _wash_time:
  1153     00CA                     	ds	2
  1154                           
  1155                           	psect	dataBANK1
  1156     00A0                     __pdataBANK1:
  1157     00A0                     _washing_program:
  1158     00A0                     	ds	24
  1159     00B8                     _water_level:
  1160     00B8                     	ds	10
  1161                           
  1162                           	psect	inittext
  1163     1429                     init_fetch0:	
  1164                           ;	Called with low address in FSR and high address in W
  1165                           
  1166     1429  087E               	movf	btemp,w
  1167     142A  008A               	movwf	10
  1168     142B  087F               	movf	btemp+1,w
  1169     142C  0082               	movwf	2
  1170     142D                     init_ram0:	
  1171                           ;Called with:
  1172                           ;	high address of idata address in btemp 
  1173                           ;	low address of idata address in btemp+1 
  1174                           ;	low address of data in FSR
  1175                           ;	high address + 1 of data in btemp-1
  1176                           
  1177     142D  160A  118A  2429  160A  118A  	fcall	init_fetch0
  1178     1432  0080               	movwf	0
  1179     1433  0A84               	incf	4,f
  1180     1434  0804               	movf	4,w
  1181     1435  067D               	xorwf	btemp+-1,w
  1182     1436  1903               	btfsc	3,2
  1183     1437  3400               	retlw	0
  1184     1438  0AFF               	incf	btemp+1,f
  1185     1439  1903               	btfsc	3,2
  1186     143A  0AFE               	incf	btemp,f
  1187     143B  2C2D               	goto	init_ram0
  1188                           
  1189                           	psect	cstackBANK1
  1190     00CC                     __pcstackBANK1:
  1191     00CC                     main@delay:
  1192                           
  1193                           ; 4 bytes @ 0x0
  1194     00CC                     	ds	4
  1195     00D0                     main@delay_93:
  1196                           
  1197                           ; 2 bytes @ 0x4
  1198     00D0                     	ds	2
  1199     00D2                     main@key:
  1200                           
  1201                           ; 1 bytes @ 0x6
  1202     00D2                     	ds	1
  1203                           
  1204                           	psect	cstackCOMMON
  1205     0070                     __pcstackCOMMON:
  1206     0070                     ?_init_clcd:
  1207     0070                     ?_init_digital_keypad:	
  1208                           ; 1 bytes @ 0x0
  1209                           
  1210     0070                     ?_init_timer2:	
  1211                           ; 1 bytes @ 0x0
  1212                           
  1213     0070                     ?_read_digital_keypad:	
  1214                           ; 1 bytes @ 0x0
  1215                           
  1216     0070                     ?_clear_screen:	
  1217                           ; 1 bytes @ 0x0
  1218                           
  1219     0070                     ?_power_on_screen:	
  1220                           ; 1 bytes @ 0x0
  1221                           
  1222     0070                     ?_set_time:	
  1223                           ; 1 bytes @ 0x0
  1224                           
  1225     0070                     ?_washing_program_display:	
  1226                           ; 1 bytes @ 0x0
  1227                           
  1228     0070                     ?_water_level_screen:	
  1229                           ; 1 bytes @ 0x0
  1230                           
  1231     0070                     ?_run_program:	
  1232                           ; 1 bytes @ 0x0
  1233                           
  1234     0070                     ?_door_status_check:	
  1235                           ; 1 bytes @ 0x0
  1236                           
  1237     0070                     ?_init_config:	
  1238                           ; 1 bytes @ 0x0
  1239                           
  1240     0070                     ?_main:	
  1241                           ; 1 bytes @ 0x0
  1242                           
  1243     0070                     ?_send_nibble:	
  1244                           ; 1 bytes @ 0x0
  1245                           
  1246     0070                     ?_init_display_controller:	
  1247                           ; 1 bytes @ 0x0
  1248                           
  1249     0070                     ?_isr:	
  1250                           ; 1 bytes @ 0x0
  1251                           
  1252     0070                     read_digital_keypad@mode:	
  1253                           ; 1 bytes @ 0x0
  1254                           
  1255     0070                     ??_isr:	
  1256                           ; 1 bytes @ 0x0
  1257                           
  1258                           
  1259                           ; 1 bytes @ 0x0
  1260     0070                     	ds	2
  1261     0072                     ?__Umul8_16:
  1262     0072                     ?___wmul:	
  1263                           ; 2 bytes @ 0x2
  1264                           
  1265     0072                     ?___awdiv:	
  1266                           ; 2 bytes @ 0x2
  1267                           
  1268     0072                     ?___awmod:	
  1269                           ; 2 bytes @ 0x2
  1270                           
  1271     0072                     ?___xxtofl:	
  1272                           ; 2 bytes @ 0x2
  1273                           
  1274     0072                     read_digital_keypad@key:	
  1275                           ; 4 bytes @ 0x2
  1276                           
  1277     0072                     ___fladd@signs:	
  1278                           ; 1 bytes @ 0x2
  1279                           
  1280     0072                     __Umul8_16@multiplicand:	
  1281                           ; 1 bytes @ 0x2
  1282                           
  1283     0072                     ___wmul@multiplier:	
  1284                           ; 1 bytes @ 0x2
  1285                           
  1286     0072                     ___awdiv@divisor:	
  1287                           ; 2 bytes @ 0x2
  1288                           
  1289     0072                     ___awmod@divisor:	
  1290                           ; 2 bytes @ 0x2
  1291                           
  1292     0072                     ___xxtofl@val:	
  1293                           ; 2 bytes @ 0x2
  1294                           
  1295     0072                     ??_init_digital_keypad:	
  1296                           ; 4 bytes @ 0x2
  1297                           
  1298     0072                     ??_init_timer2:	
  1299                           ; 1 bytes @ 0x2
  1300                           
  1301     0072                     ??_read_digital_keypad:	
  1302                           ; 1 bytes @ 0x2
  1303                           
  1304     0072                     ??_set_time:	
  1305                           ; 1 bytes @ 0x2
  1306                           
  1307     0072                     ??_send_nibble:	
  1308                           ; 1 bytes @ 0x2
  1309                           
  1310                           
  1311                           ; 1 bytes @ 0x2
  1312     0072                     	ds	1
  1313     0073                     send_nibble@nibble:
  1314     0073                     ___fladd@aexp:	
  1315                           ; 1 bytes @ 0x3
  1316                           
  1317                           
  1318                           ; 1 bytes @ 0x3
  1319     0073                     	ds	1
  1320     0074                     ?_clcd_write:
  1321     0074                     clcd_write@mode:	
  1322                           ; 1 bytes @ 0x4
  1323                           
  1324     0074                     ___fladd@bexp:	
  1325                           ; 1 bytes @ 0x4
  1326                           
  1327     0074                     ___wmul@multiplicand:	
  1328                           ; 1 bytes @ 0x4
  1329                           
  1330     0074                     ___awdiv@dividend:	
  1331                           ; 2 bytes @ 0x4
  1332                           
  1333     0074                     ___awmod@dividend:	
  1334                           ; 2 bytes @ 0x4
  1335                           
  1336     0074                     ??__Umul8_16:	
  1337                           ; 2 bytes @ 0x4
  1338                           
  1339                           
  1340                           ; 1 bytes @ 0x4
  1341     0074                     	ds	1
  1342     0075                     ___fladd@grs:
  1343     0075                     ??_clcd_write:	
  1344                           ; 1 bytes @ 0x5
  1345                           
  1346                           
  1347                           ; 1 bytes @ 0x5
  1348     0075                     	ds	1
  1349     0076                     clcd_write@byte:
  1350     0076                     ___awmod@counter:	
  1351                           ; 1 bytes @ 0x6
  1352                           
  1353     0076                     ___fltol@sign1:	
  1354                           ; 1 bytes @ 0x6
  1355                           
  1356     0076                     ___wmul@product:	
  1357                           ; 1 bytes @ 0x6
  1358                           
  1359     0076                     ??___wmul:	
  1360                           ; 2 bytes @ 0x6
  1361                           
  1362     0076                     ??___awdiv:	
  1363                           ; 1 bytes @ 0x6
  1364                           
  1365     0076                     ??___awmod:	
  1366                           ; 1 bytes @ 0x6
  1367                           
  1368     0076                     ??___flsub:	
  1369                           ; 1 bytes @ 0x6
  1370                           
  1371                           
  1372                           ; 1 bytes @ 0x6
  1373     0076                     	ds	1
  1374     0077                     ___awmod@sign:
  1375     0077                     ___fltol@exp1:	
  1376                           ; 1 bytes @ 0x7
  1377                           
  1378     0077                     ??_clear_screen:	
  1379                           ; 1 bytes @ 0x7
  1380                           
  1381     0077                     ??_init_display_controller:	
  1382                           ; 1 bytes @ 0x7
  1383                           
  1384                           
  1385                           ; 1 bytes @ 0x7
  1386     0077                     	ds	1
  1387     0078                     ?_clcd_putch:
  1388     0078                     clcd_putch@addr:	
  1389                           ; 1 bytes @ 0x8
  1390                           
  1391     0078                     ??_clcd_print:	
  1392                           ; 1 bytes @ 0x8
  1393                           
  1394                           
  1395                           ; 1 bytes @ 0x8
  1396     0078                     	ds	1
  1397     0079                     ??_init_clcd:
  1398     0079                     ??_door_status_check:	
  1399                           ; 1 bytes @ 0x9
  1400                           
  1401     0079                     ??_init_config:	
  1402                           ; 1 bytes @ 0x9
  1403                           
  1404     0079                     ??_clcd_putch:	
  1405                           ; 1 bytes @ 0x9
  1406                           
  1407                           
  1408                           	psect	cstackBANK0
  1409     0020                     __pcstackBANK0:	
  1410                           ; 1 bytes @ 0x9
  1411                           
  1412     0020                     ?_clcd_print:
  1413     0020                     ?___fladd:	
  1414                           ; 1 bytes @ 0x0
  1415                           
  1416     0020                     ___awdiv@counter:	
  1417                           ; 4 bytes @ 0x0
  1418                           
  1419     0020                     clcd_print@str:	
  1420                           ; 1 bytes @ 0x0
  1421                           
  1422     0020                     __Umul8_16@product:	
  1423                           ; 2 bytes @ 0x0
  1424                           
  1425     0020                     ___fladd@b:	
  1426                           ; 2 bytes @ 0x0
  1427                           
  1428     0020                     ??___xxtofl:	
  1429                           ; 4 bytes @ 0x0
  1430                           
  1431                           
  1432                           ; 1 bytes @ 0x0
  1433     0020                     	ds	1
  1434     0021                     ___awdiv@sign:
  1435                           
  1436                           ; 1 bytes @ 0x1
  1437     0021                     	ds	1
  1438     0022                     clcd_print@addr:
  1439     0022                     ___awdiv@quotient:	
  1440                           ; 1 bytes @ 0x2
  1441                           
  1442     0022                     __Umul8_16@word_mpld:	
  1443                           ; 2 bytes @ 0x2
  1444                           
  1445                           
  1446                           ; 2 bytes @ 0x2
  1447     0022                     	ds	2
  1448     0024                     clcd_putch@data:
  1449     0024                     __Umul8_16@multiplier:	
  1450                           ; 1 bytes @ 0x4
  1451                           
  1452     0024                     ___xxtofl@sign:	
  1453                           ; 1 bytes @ 0x4
  1454                           
  1455     0024                     ___fladd@a:	
  1456                           ; 1 bytes @ 0x4
  1457                           
  1458                           
  1459                           ; 4 bytes @ 0x4
  1460     0024                     	ds	1
  1461     0025                     ___xxtofl@exp:
  1462     0025                     ??_power_on_screen:	
  1463                           ; 1 bytes @ 0x5
  1464                           
  1465     0025                     ??_washing_program_display:	
  1466                           ; 1 bytes @ 0x5
  1467                           
  1468     0025                     ??_water_level_screen:	
  1469                           ; 1 bytes @ 0x5
  1470                           
  1471                           
  1472                           ; 1 bytes @ 0x5
  1473     0025                     	ds	1
  1474     0026                     ___xxtofl@arg:
  1475                           
  1476                           ; 4 bytes @ 0x6
  1477     0026                     	ds	1
  1478     0027                     washing_program_display@key:
  1479     0027                     water_level_screen@key:	
  1480                           ; 1 bytes @ 0x7
  1481                           
  1482                           
  1483                           ; 1 bytes @ 0x7
  1484     0027                     	ds	1
  1485     0028                     power_on_screen@i:
  1486     0028                     ??___fladd:	
  1487                           ; 1 bytes @ 0x8
  1488                           
  1489                           
  1490                           ; 1 bytes @ 0x8
  1491     0028                     	ds	1
  1492     0029                     power_on_screen@i_196:
  1493                           
  1494                           ; 1 bytes @ 0x9
  1495     0029                     	ds	1
  1496     002A                     ?___flmul:
  1497     002A                     ___flmul@b:	
  1498                           ; 4 bytes @ 0xA
  1499                           
  1500                           
  1501                           ; 4 bytes @ 0xA
  1502     002A                     	ds	4
  1503     002E                     ___flmul@a:
  1504                           
  1505                           ; 4 bytes @ 0xE
  1506     002E                     	ds	4
  1507     0032                     ??___flmul:
  1508                           
  1509                           ; 1 bytes @ 0x12
  1510     0032                     	ds	5
  1511     0037                     ___flmul@sign:
  1512                           
  1513                           ; 1 bytes @ 0x17
  1514     0037                     	ds	1
  1515     0038                     ___flmul@aexp:
  1516                           
  1517                           ; 1 bytes @ 0x18
  1518     0038                     	ds	1
  1519     0039                     ___flmul@grs:
  1520                           
  1521                           ; 4 bytes @ 0x19
  1522     0039                     	ds	4
  1523     003D                     ___flmul@bexp:
  1524                           
  1525                           ; 1 bytes @ 0x1D
  1526     003D                     	ds	1
  1527     003E                     ___flmul@prod:
  1528                           
  1529                           ; 4 bytes @ 0x1E
  1530     003E                     	ds	4
  1531     0042                     ___flmul@temp:
  1532                           
  1533                           ; 2 bytes @ 0x22
  1534     0042                     	ds	2
  1535     0044                     ?___fltol:
  1536     0044                     ?___flsub:	
  1537                           ; 4 bytes @ 0x24
  1538                           
  1539     0044                     ___fltol@f1:	
  1540                           ; 4 bytes @ 0x24
  1541                           
  1542     0044                     ___flsub@a:	
  1543                           ; 4 bytes @ 0x24
  1544                           
  1545                           
  1546                           ; 4 bytes @ 0x24
  1547     0044                     	ds	4
  1548     0048                     ___flsub@b:
  1549     0048                     ??___fltol:	
  1550                           ; 4 bytes @ 0x28
  1551                           
  1552                           
  1553                           ; 1 bytes @ 0x28
  1554     0048                     	ds	4
  1555     004C                     ?___flge:
  1556     004C                     ___flge@ff1:	
  1557                           ; 1 bit 
  1558                           
  1559                           
  1560                           ; 4 bytes @ 0x2C
  1561     004C                     	ds	4
  1562     0050                     ___flge@ff2:
  1563                           
  1564                           ; 4 bytes @ 0x30
  1565     0050                     	ds	4
  1566     0054                     ??___flge:
  1567                           
  1568                           ; 1 bytes @ 0x34
  1569     0054                     	ds	4
  1570     0058                     ??_run_program:
  1571                           
  1572                           ; 1 bytes @ 0x38
  1573     0058                     	ds	6
  1574     005E                     run_program@key:
  1575                           
  1576                           ; 1 bytes @ 0x3E
  1577     005E                     	ds	1
  1578     005F                     ??_main:
  1579                           
  1580                           ; 1 bytes @ 0x3F
  1581     005F                     	ds	4
  1582                           
  1583                           	psect	maintext
  1584     0ADE                     __pmaintext:	
  1585 ;;
  1586 ;;Main: autosize = 0, tempsize = 4, incstack = 0, save=0
  1587 ;;
  1588 ;; *************** function _main *****************
  1589 ;; Defined at:
  1590 ;;		line 31 in file "main.c"
  1591 ;; Parameters:    Size  Location     Type
  1592 ;;		None
  1593 ;; Auto vars:     Size  Location     Type
  1594 ;;  delay           2    4[BANK1 ] unsigned int 
  1595 ;;  delay           4    0[BANK1 ] unsigned long 
  1596 ;;  key             1    6[BANK1 ] unsigned char 
  1597 ;; Return value:  Size  Location     Type
  1598 ;;                  1    wreg      void 
  1599 ;; Registers used:
  1600 ;;		wreg, fsr0l, fsr0h, status,2, status,0, btemp+1, pclath, cstack
  1601 ;; Tracked objects:
  1602 ;;		On entry : B00/0
  1603 ;;		On exit  : 0/0
  1604 ;;		Unchanged: 0/0
  1605 ;; Data sizes:     COMMON   BANK0   BANK1   BANK3   BANK2
  1606 ;;      Params:         0       0       0       0       0
  1607 ;;      Locals:         0       0       7       0       0
  1608 ;;      Temps:          0       4       0       0       0
  1609 ;;      Totals:         0       4       7       0       0
  1610 ;;Total ram usage:       11 bytes
  1611 ;; Hardware stack levels required when called: 6
  1612 ;; This function calls:
  1613 ;;		_clcd_print
  1614 ;;		_clear_screen
  1615 ;;		_init_config
  1616 ;;		_power_on_screen
  1617 ;;		_read_digital_keypad
  1618 ;;		_run_program
  1619 ;;		_set_time
  1620 ;;		_washing_program_display
  1621 ;;		_water_level_screen
  1622 ;; This function is called by:
  1623 ;;		Startup code after reset
  1624 ;; This function uses a non-reentrant model
  1625 ;;
  1626                           
  1627     0ADE                     _main:	
  1628                           ;psect for function _main
  1629                           
  1630     0ADE                     l4185:	
  1631                           ;incstack = 0
  1632                           ; Regs used in _main: [wreg-fsr0h+status,2+status,0+btemp+1+pclath+cstack]
  1633                           
  1634                           
  1635                           ;main.c: 32:     power_on_screen();
  1636     0ADE  120A  118A  27E3  120A  158A  	fcall	_init_config
  1637     0AE3                     l4187:
  1638                           
  1639                           ;main.c: 33: ;main.c: 34: 
  1640     0AE3  3060               	movlw	low (STR_1| (0+32768))
  1641     0AE4  1283               	bcf	3,5	;RP0=0, select bank0
  1642     0AE5  1303               	bcf	3,6	;RP1=0, select bank0
  1643     0AE6  00A0               	movwf	clcd_print@str
  1644     0AE7  3090               	movlw	high (STR_1| (0+32768))
  1645     0AE8  00A1               	movwf	clcd_print@str+1
  1646     0AE9  3080               	movlw	128
  1647     0AEA  00A2               	movwf	clcd_print@addr
  1648     0AEB  160A  118A  2525  120A  158A  	fcall	_clcd_print
  1649     0AF0                     l4189:
  1650                           
  1651                           ;main.c: 35:     while (1) {
  1652     0AF0  3014               	movlw	low (STR_2| (0+32768))
  1653     0AF1  1283               	bcf	3,5	;RP0=0, select bank0
  1654     0AF2  1303               	bcf	3,6	;RP1=0, select bank0
  1655     0AF3  00A0               	movwf	clcd_print@str
  1656     0AF4  3091               	movlw	high (STR_2| (0+32768))
  1657     0AF5  00A1               	movwf	clcd_print@str+1
  1658     0AF6  30C4               	movlw	196
  1659     0AF7  00A2               	movwf	clcd_print@addr
  1660     0AF8  160A  118A  2525  120A  158A  	fcall	_clcd_print
  1661     0AFD                     l4191:
  1662                           
  1663                           ;main.c: 36: 
  1664     0AFD  3042               	movlw	low (STR_3| (0+32768))
  1665     0AFE  1283               	bcf	3,5	;RP0=0, select bank0
  1666     0AFF  1303               	bcf	3,6	;RP1=0, select bank0
  1667     0B00  00A0               	movwf	clcd_print@str
  1668     0B01  3090               	movlw	high (STR_3| (0+32768))
  1669     0B02  00A1               	movwf	clcd_print@str+1
  1670     0B03  3090               	movlw	144
  1671     0B04  00A2               	movwf	clcd_print@addr
  1672     0B05  160A  118A  2525  120A  158A  	fcall	_clcd_print
  1673                           
  1674                           ;main.c: 37:         key = read_digital_keypad(1);
  1675     0B0A  2B53               	goto	l4197
  1676     0B0B                     l4193:
  1677                           
  1678                           ;main.c: 38: ;main.c: 39:         for (unsigned int delay = 3000; delay--;);
  1679     0B0B  3000               	movlw	0
  1680     0B0C  1683               	bsf	3,5	;RP0=1, select bank1
  1681     0B0D  1303               	bcf	3,6	;RP1=0, select bank1
  1682     0B0E  00CF               	movwf	(main@delay+3)^(0+128)
  1683     0B0F  3000               	movlw	0
  1684     0B10  00CE               	movwf	(main@delay+2)^(0+128)
  1685     0B11  300B               	movlw	11
  1686     0B12  00CD               	movwf	(main@delay+1)^(0+128)
  1687     0B13  30B8               	movlw	184
  1688     0B14  00CC               	movwf	main@delay^(0+128)
  1689     0B15                     l4195:
  1690     0B15  3001               	movlw	1
  1691     0B16  1283               	bcf	3,5	;RP0=0, select bank0
  1692     0B17  1303               	bcf	3,6	;RP1=0, select bank0
  1693     0B18  00DF               	movwf	??_main
  1694     0B19  3000               	movlw	0
  1695     0B1A  00E0               	movwf	??_main+1
  1696     0B1B  3000               	movlw	0
  1697     0B1C  00E1               	movwf	??_main+2
  1698     0B1D  3000               	movlw	0
  1699     0B1E  00E2               	movwf	??_main+3
  1700     0B1F  085F               	movf	??_main,w
  1701     0B20  1683               	bsf	3,5	;RP0=1, select bank1
  1702     0B21  1303               	bcf	3,6	;RP1=0, select bank1
  1703     0B22  02CC               	subwf	main@delay^(0+128),f
  1704     0B23  1283               	bcf	3,5	;RP0=0, select bank0
  1705     0B24  1303               	bcf	3,6	;RP1=0, select bank0
  1706     0B25  0860               	movf	??_main+1,w
  1707     0B26  1C03               	skipc
  1708     0B27  0F60               	incfsz	??_main+1,w
  1709     0B28  2B2A               	goto	u5655
  1710     0B29  2B2D               	goto	u5656
  1711     0B2A                     u5655:
  1712     0B2A  1683               	bsf	3,5	;RP0=1, select bank1
  1713     0B2B  1303               	bcf	3,6	;RP1=0, select bank1
  1714     0B2C  02CD               	subwf	(main@delay+1)^(0+128),f
  1715     0B2D                     u5656:
  1716     0B2D  1283               	bcf	3,5	;RP0=0, select bank0
  1717     0B2E  1303               	bcf	3,6	;RP1=0, select bank0
  1718     0B2F  0861               	movf	??_main+2,w
  1719     0B30  1C03               	skipc
  1720     0B31  0F61               	incfsz	??_main+2,w
  1721     0B32  2B34               	goto	u5657
  1722     0B33  2B37               	goto	u5658
  1723     0B34                     u5657:
  1724     0B34  1683               	bsf	3,5	;RP0=1, select bank1
  1725     0B35  1303               	bcf	3,6	;RP1=0, select bank1
  1726     0B36  02CE               	subwf	(main@delay+2)^(0+128),f
  1727     0B37                     u5658:
  1728     0B37  1283               	bcf	3,5	;RP0=0, select bank0
  1729     0B38  1303               	bcf	3,6	;RP1=0, select bank0
  1730     0B39  0862               	movf	??_main+3,w
  1731     0B3A  1C03               	skipc
  1732     0B3B  0F62               	incfsz	??_main+3,w
  1733     0B3C  2B3E               	goto	u5659
  1734     0B3D  2B41               	goto	u5650
  1735     0B3E                     u5659:
  1736     0B3E  1683               	bsf	3,5	;RP0=1, select bank1
  1737     0B3F  1303               	bcf	3,6	;RP1=0, select bank1
  1738     0B40  02CF               	subwf	(main@delay+3)^(0+128),f
  1739     0B41                     u5650:
  1740     0B41  1283               	bcf	3,5	;RP0=0, select bank0
  1741     0B42  1303               	bcf	3,6	;RP1=0, select bank0
  1742     0B43  1683               	bsf	3,5	;RP0=1, select bank1
  1743     0B44  1303               	bcf	3,6	;RP1=0, select bank1
  1744     0B45  0A4C               	incf	main@delay^(0+128),w
  1745     0B46  1D03               	skipz
  1746     0B47  2B52               	goto	u5661
  1747     0B48  0A4D               	incf	(main@delay+1)^(0+128),w
  1748     0B49  1D03               	skipz
  1749     0B4A  2B52               	goto	u5661
  1750     0B4B  0A4E               	incf	(main@delay+2)^(0+128),w
  1751     0B4C  1D03               	skipz
  1752     0B4D  2B52               	goto	u5661
  1753     0B4E  0A4F               	incf	(main@delay+3)^(0+128),w
  1754     0B4F  1D03               	btfss	3,2
  1755     0B50  2B52               	goto	u5661
  1756     0B51  2B53               	goto	u5660
  1757     0B52                     u5661:
  1758     0B52  2B15               	goto	l4195
  1759     0B53                     u5660:
  1760     0B53                     l4197:
  1761                           
  1762                           ;main.c: 37:         key = read_digital_keypad(1);
  1763     0B53  3001               	movlw	1
  1764     0B54  160A  118A  25A5  120A  158A  	fcall	_read_digital_keypad
  1765     0B59  3A2F               	xorlw	47
  1766     0B5A  1D03               	skipz
  1767     0B5B  2B5D               	goto	u5671
  1768     0B5C  2B5E               	goto	u5670
  1769     0B5D                     u5671:
  1770     0B5D  2B0B               	goto	l4193
  1771     0B5E                     u5670:
  1772     0B5E                     l4199:
  1773                           
  1774                           ;main.c: 42:         {
  1775     0B5E  160A  118A  2418  120A  158A  	fcall	_clear_screen
  1776     0B63                     l4201:
  1777                           
  1778                           ;main.c: 43:             operational_mode = 0X02;
  1779     0B63  120A  158A  200E  120A  158A  	fcall	_power_on_screen
  1780     0B68                     l4203:
  1781                           
  1782                           ;main.c: 48:             operational_mode = 0X03;
  1783     0B68  3001               	movlw	1
  1784     0B69  160A  118A  25A5  120A  158A  	fcall	_read_digital_keypad
  1785     0B6E  1683               	bsf	3,5	;RP0=1, select bank1
  1786     0B6F  1303               	bcf	3,6	;RP1=0, select bank1
  1787     0B70  00D2               	movwf	main@key^(0+128)
  1788     0B71                     l4205:
  1789                           
  1790                           ;main.c: 50:             clcd_print("press Switch", (0x80 + 0));
  1791     0B71  30B8               	movlw	184
  1792     0B72  00D0               	movwf	main@delay_93^(0+128)
  1793     0B73  300B               	movlw	11
  1794     0B74  00D1               	movwf	(main@delay_93^(0+128)+1)
  1795     0B75                     l4207:
  1796     0B75  3001               	movlw	1
  1797     0B76  02D0               	subwf	main@delay_93^(0+128),f
  1798     0B77  3000               	movlw	0
  1799     0B78  1C03               	skipc
  1800     0B79  03D1               	decf	(main@delay_93+1)^(0+128),f
  1801     0B7A  02D1               	subwf	(main@delay_93+1)^(0+128),f
  1802     0B7B  0A50               	incf	main@delay_93^(0+128),w
  1803     0B7C  1D03               	skipz
  1804     0B7D  2B82               	goto	u5681
  1805     0B7E  0A51               	incf	(main@delay_93+1)^(0+128),w
  1806     0B7F  1D03               	btfss	3,2
  1807     0B80  2B82               	goto	u5681
  1808     0B81  2B83               	goto	u5680
  1809     0B82                     u5681:
  1810     0B82  2B75               	goto	l4207
  1811     0B83                     u5680:
  1812     0B83                     l4209:
  1813                           
  1814                           ;main.c: 52:             clcd_print("SW6: STOP", (0x90 + 0));
  1815     0B83  3099               	movlw	153
  1816     0B84  0652               	xorwf	main@key^(0+128),w
  1817     0B85  1D03               	btfss	3,2
  1818     0B86  2B88               	goto	u5691
  1819     0B87  2B89               	goto	u5690
  1820     0B88                     u5691:
  1821     0B88  2B95               	goto	l4215
  1822     0B89                     u5690:
  1823     0B89                     l4211:
  1824     0B89  1283               	bcf	3,5	;RP0=0, select bank0
  1825     0B8A  1303               	bcf	3,6	;RP1=0, select bank0
  1826     0B8B  036C               	decf	_operational_mode,w
  1827     0B8C  1D03               	btfss	3,2
  1828     0B8D  2B8F               	goto	u5701
  1829     0B8E  2B90               	goto	u5700
  1830     0B8F                     u5701:
  1831     0B8F  2B95               	goto	l4215
  1832     0B90                     u5700:
  1833     0B90                     l4213:
  1834                           
  1835                           ;main.c: 53:             set_time();;main.c: 54: 
  1836     0B90  3002               	movlw	2
  1837     0B91  00EC               	movwf	_operational_mode
  1838                           
  1839                           ;main.c: 55:         }
  1840     0B92  3022               	movlw	34
  1841     0B93  00EB               	movwf	_reset_flag
  1842                           
  1843                           ;main.c: 56:         else if ( key == 0x2F && operational_mode == 0X44)
  1844     0B94  2C26               	goto	l4253
  1845     0B95                     l4215:
  1846     0B95  3099               	movlw	153
  1847     0B96  1683               	bsf	3,5	;RP0=1, select bank1
  1848     0B97  1303               	bcf	3,6	;RP1=0, select bank1
  1849     0B98  0652               	xorwf	main@key^(0+128),w
  1850     0B99  1D03               	btfss	3,2
  1851     0B9A  2B9C               	goto	u5711
  1852     0B9B  2B9D               	goto	u5710
  1853     0B9C                     u5711:
  1854     0B9C  2BD9               	goto	l4231
  1855     0B9D                     u5710:
  1856     0B9D                     l4217:
  1857     0B9D  3002               	movlw	2
  1858     0B9E  1283               	bcf	3,5	;RP0=0, select bank0
  1859     0B9F  1303               	bcf	3,6	;RP1=0, select bank0
  1860     0BA0  066C               	xorwf	_operational_mode,w
  1861     0BA1  1D03               	btfss	3,2
  1862     0BA2  2BA4               	goto	u5721
  1863     0BA3  2BA5               	goto	u5720
  1864     0BA4                     u5721:
  1865     0BA4  2BD9               	goto	l4231
  1866     0BA5                     u5720:
  1867     0BA5                     l4219:
  1868                           
  1869                           ;main.c: 58:             operational_mode = 0X04;;main.c: 59:             TMR2ON = 1;
  1870     0BA5  3003               	movlw	3
  1871     0BA6  00EC               	movwf	_operational_mode
  1872     0BA7                     l4221:
  1873                           
  1874                           ;main.c: 60:             RC2 = 1;
  1875     0BA7  160A  118A  2418  120A  158A  	fcall	_clear_screen
  1876     0BAC                     l4223:
  1877                           
  1878                           ;main.c: 61:         }
  1879     0BAC  3095               	movlw	low (STR_4| (0+32768))
  1880     0BAD  1283               	bcf	3,5	;RP0=0, select bank0
  1881     0BAE  1303               	bcf	3,6	;RP1=0, select bank0
  1882     0BAF  00A0               	movwf	clcd_print@str
  1883     0BB0  3090               	movlw	high (STR_4| (0+32768))
  1884     0BB1  00A1               	movwf	clcd_print@str+1
  1885     0BB2  3080               	movlw	128
  1886     0BB3  00A2               	movwf	clcd_print@addr
  1887     0BB4  160A  118A  2525  120A  158A  	fcall	_clcd_print
  1888     0BB9                     l4225:
  1889                           
  1890                           ;main.c: 62: 
  1891     0BB9  30CF               	movlw	low (STR_5| (0+32768))
  1892     0BBA  1283               	bcf	3,5	;RP0=0, select bank0
  1893     0BBB  1303               	bcf	3,6	;RP1=0, select bank0
  1894     0BBC  00A0               	movwf	clcd_print@str
  1895     0BBD  3090               	movlw	high (STR_5| (0+32768))
  1896     0BBE  00A1               	movwf	clcd_print@str+1
  1897     0BBF  30C0               	movlw	192
  1898     0BC0  00A2               	movwf	clcd_print@addr
  1899     0BC1  160A  118A  2525  120A  158A  	fcall	_clcd_print
  1900     0BC6                     l4227:
  1901                           
  1902                           ;main.c: 63: 
  1903     0BC6  30F8               	movlw	low (STR_6| (0+32768))
  1904     0BC7  1283               	bcf	3,5	;RP0=0, select bank0
  1905     0BC8  1303               	bcf	3,6	;RP1=0, select bank0
  1906     0BC9  00A0               	movwf	clcd_print@str
  1907     0BCA  3090               	movlw	high (STR_6| (0+32768))
  1908     0BCB  00A1               	movwf	clcd_print@str+1
  1909     0BCC  3090               	movlw	144
  1910     0BCD  00A2               	movwf	clcd_print@addr
  1911     0BCE  160A  118A  2525  120A  158A  	fcall	_clcd_print
  1912     0BD3                     l4229:
  1913                           
  1914                           ;main.c: 64: 
  1915     0BD3  120A  158A  243A  120A  158A  	fcall	_set_time
  1916                           
  1917                           ;main.c: 66:         {
  1918     0BD8  2C26               	goto	l4253
  1919     0BD9                     l4231:
  1920     0BD9  302F               	movlw	47
  1921     0BDA  1683               	bsf	3,5	;RP0=1, select bank1
  1922     0BDB  1303               	bcf	3,6	;RP1=0, select bank1
  1923     0BDC  0652               	xorwf	main@key^(0+128),w
  1924     0BDD  1D03               	btfss	3,2
  1925     0BDE  2BE0               	goto	u5731
  1926     0BDF  2BE1               	goto	u5730
  1927     0BE0                     u5731:
  1928     0BE0  2BEE               	goto	l59
  1929     0BE1                     u5730:
  1930     0BE1                     l4233:
  1931     0BE1  3044               	movlw	68
  1932     0BE2  1283               	bcf	3,5	;RP0=0, select bank0
  1933     0BE3  1303               	bcf	3,6	;RP1=0, select bank0
  1934     0BE4  066C               	xorwf	_operational_mode,w
  1935     0BE5  1D03               	btfss	3,2
  1936     0BE6  2BE8               	goto	u5741
  1937     0BE7  2BE9               	goto	u5740
  1938     0BE8                     u5741:
  1939     0BE8  2BEE               	goto	l59
  1940     0BE9                     u5740:
  1941     0BE9                     l4235:
  1942                           
  1943                           ;main.c: 68:                 washing_program_display(key);;main.c: 69:                 b
      +                          reak;
  1944     0BE9  3004               	movlw	4
  1945     0BEA  00EC               	movwf	_operational_mode
  1946                           
  1947                           ;main.c: 70:             case 0X02:
  1948     0BEB  1512               	bsf	18,2	;volatile
  1949                           
  1950                           ;main.c: 71:                 water_level_screen(key);
  1951     0BEC  1507               	bsf	7,2	;volatile
  1952     0BED  2C26               	goto	l4253
  1953     0BEE                     l59:
  1954                           
  1955                           ;main.c: 76:                 if (key == 0x2F) {
  1956     0BEE  2C26               	goto	l4253
  1957     0BEF                     l4237:
  1958                           
  1959                           ;main.c: 79: 
  1960     0BEF  1683               	bsf	3,5	;RP0=1, select bank1
  1961     0BF0  1303               	bcf	3,6	;RP1=0, select bank1
  1962     0BF1  0852               	movf	main@key^(0+128),w
  1963     0BF2  120A  158A  21D7  120A  158A  	fcall	_washing_program_display
  1964                           
  1965                           ;main.c: 80:                 } else if (key == 0x1F) {
  1966     0BF7  2B68               	goto	l4203
  1967     0BF8                     l4239:
  1968                           
  1969                           ;main.c: 82:                     reset_flag = 0X11;
  1970     0BF8  1683               	bsf	3,5	;RP0=1, select bank1
  1971     0BF9  1303               	bcf	3,6	;RP1=0, select bank1
  1972     0BFA  0852               	movf	main@key^(0+128),w
  1973     0BFB  160A  118A  2765  120A  158A  	fcall	_water_level_screen
  1974                           
  1975                           ;main.c: 83:                 }
  1976     0C00  2B68               	goto	l4203
  1977     0C01                     l4241:
  1978                           
  1979                           ;main.c: 85:                 break;;main.c: 87:                 run_program(key);
  1980     0C01  302F               	movlw	47
  1981     0C02  1683               	bsf	3,5	;RP0=1, select bank1
  1982     0C03  1303               	bcf	3,6	;RP1=0, select bank1
  1983     0C04  0652               	xorwf	main@key^(0+128),w
  1984     0C05  1D03               	btfss	3,2
  1985     0C06  2C08               	goto	u5751
  1986     0C07  2C09               	goto	u5750
  1987     0C08                     u5751:
  1988     0C08  2C10               	goto	l4245
  1989     0C09                     u5750:
  1990     0C09                     l4243:
  1991                           
  1992                           ;main.c: 88:                 break;
  1993     0C09  3004               	movlw	4
  1994     0C0A  1283               	bcf	3,5	;RP0=0, select bank0
  1995     0C0B  1303               	bcf	3,6	;RP1=0, select bank0
  1996     0C0C  00EC               	movwf	_operational_mode
  1997                           
  1998                           ;main.c: 89:         }
  1999     0C0D  3033               	movlw	51
  2000     0C0E  00EB               	movwf	_reset_flag
  2001                           
  2002                           ;main.c: 91:     return;
  2003     0C0F  2B68               	goto	l4203
  2004     0C10                     l4245:
  2005     0C10  301F               	movlw	31
  2006     0C11  0652               	xorwf	main@key^(0+128),w
  2007     0C12  1D03               	btfss	3,2
  2008     0C13  2C15               	goto	u5761
  2009     0C14  2C16               	goto	u5760
  2010     0C15                     u5761:
  2011     0C15  2C36               	goto	l65
  2012     0C16                     u5760:
  2013     0C16                     l4247:
  2014                           
  2015                           ;main.c: 92: }
  2016     0C16  3001               	movlw	1
  2017     0C17  1283               	bcf	3,5	;RP0=0, select bank0
  2018     0C18  1303               	bcf	3,6	;RP1=0, select bank0
  2019     0C19  00EC               	movwf	_operational_mode
  2020     0C1A  3011               	movlw	17
  2021     0C1B  00EB               	movwf	_reset_flag
  2022     0C1C  2B68               	goto	l4203
  2023     0C1D                     l4249:
  2024     0C1D  1683               	bsf	3,5	;RP0=1, select bank1
  2025     0C1E  1303               	bcf	3,6	;RP1=0, select bank1
  2026     0C1F  0852               	movf	main@key^(0+128),w
  2027     0C20  120A  118A  204B  120A  158A  	fcall	_run_program
  2028     0C25  2B68               	goto	l4203
  2029     0C26                     l4253:
  2030     0C26  1283               	bcf	3,5	;RP0=0, select bank0
  2031     0C27  1303               	bcf	3,6	;RP1=0, select bank0
  2032     0C28  086C               	movf	_operational_mode,w
  2033                           
  2034                           ; Switch size 1, requested type "simple"
  2035                           ; Number of cases is 4, Range of values is 1 to 4
  2036                           ; switch strategies available:
  2037                           ; Name         Instructions Cycles
  2038                           ; simple_byte           13     7 (average)
  2039                           ; direct_byte           23    11 (fixed)
  2040                           ; jumptable            263     9 (fixed)
  2041                           ;	Chosen strategy is simple_byte
  2042     0C29  3A01               	xorlw	1	; case 1
  2043     0C2A  1903               	skipnz
  2044     0C2B  2BEF               	goto	l4237
  2045     0C2C  3A03               	xorlw	3	; case 2
  2046     0C2D  1903               	skipnz
  2047     0C2E  2BF8               	goto	l4239
  2048     0C2F  3A01               	xorlw	1	; case 3
  2049     0C30  1903               	skipnz
  2050     0C31  2C01               	goto	l4241
  2051     0C32  3A07               	xorlw	7	; case 4
  2052     0C33  1903               	skipnz
  2053     0C34  2C1D               	goto	l4249
  2054     0C35  2B68               	goto	l4203
  2055     0C36                     l65:
  2056     0C36  2B68               	goto	l4203
  2057     0C37  120A  118A  280C   	ljmp	start
  2058     0C3A                     __end_of_main:
  2059                           
  2060                           	psect	text1
  2061     1765                     __ptext1:	
  2062 ;; *************** function _water_level_screen *****************
  2063 ;; Defined at:
  2064 ;;		line 65 in file "washing_machine_function_def.c"
  2065 ;; Parameters:    Size  Location     Type
  2066 ;;  key             1    wreg     unsigned char 
  2067 ;; Auto vars:     Size  Location     Type
  2068 ;;  key             1    7[BANK0 ] unsigned char 
  2069 ;; Return value:  Size  Location     Type
  2070 ;;                  1    wreg      void 
  2071 ;; Registers used:
  2072 ;;		wreg, fsr0l, fsr0h, status,2, status,0, btemp+1, pclath, cstack
  2073 ;; Tracked objects:
  2074 ;;		On entry : 0/0
  2075 ;;		On exit  : 0/0
  2076 ;;		Unchanged: 0/0
  2077 ;; Data sizes:     COMMON   BANK0   BANK1   BANK3   BANK2
  2078 ;;      Params:         0       0       0       0       0
  2079 ;;      Locals:         0       1       0       0       0
  2080 ;;      Temps:          0       2       0       0       0
  2081 ;;      Totals:         0       3       0       0       0
  2082 ;;Total ram usage:        3 bytes
  2083 ;; Hardware stack levels used: 1
  2084 ;; Hardware stack levels required when called: 4
  2085 ;; This function calls:
  2086 ;;		___awmod
  2087 ;;		_clcd_print
  2088 ;;		_clcd_putch
  2089 ;;		_clear_screen
  2090 ;; This function is called by:
  2091 ;;		_main
  2092 ;; This function uses a non-reentrant model
  2093 ;;
  2094                           
  2095     1765                     _water_level_screen:	
  2096                           ;psect for function _water_level_screen
  2097                           
  2098                           
  2099                           ;incstack = 0
  2100                           ; Regs used in _water_level_screen: [wreg-fsr0h+status,2+status,0+btemp+1+pclath+cstack]
  2101                           ;water_level_screen@key stored from wreg
  2102     1765  1283               	bcf	3,5	;RP0=0, select bank0
  2103     1766  1303               	bcf	3,6	;RP1=0, select bank0
  2104     1767  00A7               	movwf	water_level_screen@key
  2105     1768                     l3821:
  2106                           
  2107                           ;washing_machine_function_def.c: 66:     if (reset_flag == 0X22) {
  2108     1768  3022               	movlw	34
  2109     1769  066B               	xorwf	_reset_flag,w
  2110     176A  1D03               	btfss	3,2
  2111     176B  2F6D               	goto	u5201
  2112     176C  2F6E               	goto	u5200
  2113     176D                     u5201:
  2114     176D  2F77               	goto	l3827
  2115     176E                     u5200:
  2116     176E                     l3823:
  2117                           
  2118                           ;washing_machine_function_def.c: 67:         clear_screen();
  2119     176E  160A  118A  2418  160A  118A  	fcall	_clear_screen
  2120     1773                     l3825:
  2121                           
  2122                           ;washing_machine_function_def.c: 68:         reset_flag = 0XFF;
  2123     1773  30FF               	movlw	255
  2124     1774  1283               	bcf	3,5	;RP0=0, select bank0
  2125     1775  1303               	bcf	3,6	;RP1=0, select bank0
  2126     1776  00EB               	movwf	_reset_flag
  2127     1777                     l3827:
  2128                           
  2129                           ;washing_machine_function_def.c: 70:     if (key == 0x37) {
  2130     1777  3037               	movlw	55
  2131     1778  0627               	xorwf	water_level_screen@key,w
  2132     1779  1D03               	btfss	3,2
  2133     177A  2F7C               	goto	u5211
  2134     177B  2F7D               	goto	u5210
  2135     177C                     u5211:
  2136     177C  2F8B               	goto	l3837
  2137     177D                     u5210:
  2138     177D                     l3829:
  2139                           
  2140                           ;washing_machine_function_def.c: 71:         clear_screen();
  2141     177D  160A  118A  2418  160A  118A  	fcall	_clear_screen
  2142     1782                     l3831:
  2143                           
  2144                           ;washing_machine_function_def.c: 72:         level++;
  2145     1782  3001               	movlw	1
  2146     1783  07F9               	addwf	_level,f
  2147     1784                     l3833:
  2148                           
  2149                           ;washing_machine_function_def.c: 73:         if (level == 5) {
  2150     1784  3005               	movlw	5
  2151     1785  0679               	xorwf	_level,w
  2152     1786  1D03               	btfss	3,2
  2153     1787  2F89               	goto	u5221
  2154     1788  2F8A               	goto	u5220
  2155     1789                     u5221:
  2156     1789  2F8B               	goto	l3837
  2157     178A                     u5220:
  2158     178A                     l3835:
  2159                           
  2160                           ;washing_machine_function_def.c: 74:             level = 0;
  2161     178A  01F9               	clrf	_level
  2162     178B                     l3837:
  2163                           
  2164                           ;washing_machine_function_def.c: 77:     clcd_print("WATER_LEVEL:", (0x80 + 0));
  2165     178B  307B               	movlw	low (STR_27| (0+32768))
  2166     178C  1283               	bcf	3,5	;RP0=0, select bank0
  2167     178D  1303               	bcf	3,6	;RP1=0, select bank0
  2168     178E  00A0               	movwf	clcd_print@str
  2169     178F  3090               	movlw	high (STR_27| (0+32768))
  2170     1790  00A1               	movwf	clcd_print@str+1
  2171     1791  3080               	movlw	128
  2172     1792  00A2               	movwf	clcd_print@addr
  2173     1793  160A  118A  2525  160A  118A  	fcall	_clcd_print
  2174     1798                     l3839:
  2175                           
  2176                           ;washing_machine_function_def.c: 78:     clcd_putch('*', (0xC0 + 0));
  2177     1798  30C0               	movlw	192
  2178     1799  00F8               	movwf	clcd_putch@addr
  2179     179A  302A               	movlw	42
  2180     179B  160A  118A  243C  160A  118A  	fcall	_clcd_putch
  2181     17A0                     l3841:
  2182                           
  2183                           ;washing_machine_function_def.c: 79:     clcd_print(water_level[level], (0xC0 + 2));
  2184     17A0  0879               	movf	_level,w
  2185     17A1  1283               	bcf	3,5	;RP0=0, select bank0
  2186     17A2  1303               	bcf	3,6	;RP1=0, select bank0
  2187     17A3  00A5               	movwf	??_water_level_screen
  2188     17A4  0725               	addwf	??_water_level_screen,w
  2189     17A5  3EB8               	addlw	(low (_water_level| 0))& (0+255)
  2190     17A6  0084               	movwf	4
  2191     17A7  1383               	bcf	3,7	;select IRP bank1
  2192     17A8  0800               	movf	0,w
  2193     17A9  00A0               	movwf	clcd_print@str
  2194     17AA  0A84               	incf	4,f
  2195     17AB  0800               	movf	0,w
  2196     17AC  0384               	decf	4,f
  2197     17AD  00A1               	movwf	clcd_print@str+1
  2198     17AE  30C2               	movlw	194
  2199     17AF  00A2               	movwf	clcd_print@addr
  2200     17B0  160A  118A  2525  160A  118A  	fcall	_clcd_print
  2201     17B5                     l3843:
  2202                           
  2203                           ;washing_machine_function_def.c: 80:     clcd_print(water_level[(level + 1) % 5], (0x90 
      +                          + 2));
  2204     17B5  3005               	movlw	5
  2205     17B6  00F2               	movwf	___awmod@divisor
  2206     17B7  3000               	movlw	0
  2207     17B8  00F3               	movwf	___awmod@divisor+1
  2208     17B9  0879               	movf	_level,w
  2209     17BA  3E01               	addlw	1
  2210     17BB  00F4               	movwf	___awmod@dividend
  2211     17BC  3000               	movlw	0
  2212     17BD  1803               	skipnc
  2213     17BE  3001               	movlw	1
  2214     17BF  00F5               	movwf	___awmod@dividend+1
  2215     17C0  160A  118A  264B  160A  118A  	fcall	___awmod
  2216     17C5  0872               	movf	?___awmod,w
  2217     17C6  1283               	bcf	3,5	;RP0=0, select bank0
  2218     17C7  1303               	bcf	3,6	;RP1=0, select bank0
  2219     17C8  00A5               	movwf	??_water_level_screen
  2220     17C9  0725               	addwf	??_water_level_screen,w
  2221     17CA  3EB8               	addlw	(low (_water_level| 0))& (0+255)
  2222     17CB  0084               	movwf	4
  2223     17CC  1383               	bcf	3,7	;select IRP bank1
  2224     17CD  0800               	movf	0,w
  2225     17CE  00A0               	movwf	clcd_print@str
  2226     17CF  0A84               	incf	4,f
  2227     17D0  0800               	movf	0,w
  2228     17D1  0384               	decf	4,f
  2229     17D2  00A1               	movwf	clcd_print@str+1
  2230     17D3  3092               	movlw	146
  2231     17D4  00A2               	movwf	clcd_print@addr
  2232     17D5  160A  118A  2525  160A  118A  	fcall	_clcd_print
  2233     17DA                     l3845:
  2234                           
  2235                           ;washing_machine_function_def.c: 81:     clcd_print(water_level[(level + 2) % 5], (0xD0 
      +                          + 2));
  2236     17DA  3005               	movlw	5
  2237     17DB  00F2               	movwf	___awmod@divisor
  2238     17DC  3000               	movlw	0
  2239     17DD  00F3               	movwf	___awmod@divisor+1
  2240     17DE  0879               	movf	_level,w
  2241     17DF  3E02               	addlw	2
  2242     17E0  00F4               	movwf	___awmod@dividend
  2243     17E1  3000               	movlw	0
  2244     17E2  1803               	skipnc
  2245     17E3  3001               	movlw	1
  2246     17E4  00F5               	movwf	___awmod@dividend+1
  2247     17E5  160A  118A  264B  160A  118A  	fcall	___awmod
  2248     17EA  0872               	movf	?___awmod,w
  2249     17EB  1283               	bcf	3,5	;RP0=0, select bank0
  2250     17EC  1303               	bcf	3,6	;RP1=0, select bank0
  2251     17ED  00A5               	movwf	??_water_level_screen
  2252     17EE  0725               	addwf	??_water_level_screen,w
  2253     17EF  3EB8               	addlw	(low (_water_level| 0))& (0+255)
  2254     17F0  0084               	movwf	4
  2255     17F1  1383               	bcf	3,7	;select IRP bank1
  2256     17F2  0800               	movf	0,w
  2257     17F3  00A0               	movwf	clcd_print@str
  2258     17F4  0A84               	incf	4,f
  2259     17F5  0800               	movf	0,w
  2260     17F6  0384               	decf	4,f
  2261     17F7  00A1               	movwf	clcd_print@str+1
  2262     17F8  30D2               	movlw	210
  2263     17F9  00A2               	movwf	clcd_print@addr
  2264     17FA  160A  118A  2525  160A  118A  	fcall	_clcd_print
  2265     17FF                     l231:
  2266     17FF  0008               	return
  2267     1800                     __end_of_water_level_screen:
  2268                           
  2269                           	psect	text2
  2270     09D7                     __ptext2:	
  2271 ;; *************** function _washing_program_display *****************
  2272 ;; Defined at:
  2273 ;;		line 35 in file "washing_machine_function_def.c"
  2274 ;; Parameters:    Size  Location     Type
  2275 ;;  key             1    wreg     unsigned char 
  2276 ;; Auto vars:     Size  Location     Type
  2277 ;;  key             1    7[BANK0 ] unsigned char 
  2278 ;; Return value:  Size  Location     Type
  2279 ;;                  1    wreg      void 
  2280 ;; Registers used:
  2281 ;;		wreg, fsr0l, fsr0h, status,2, status,0, btemp+1, pclath, cstack
  2282 ;; Tracked objects:
  2283 ;;		On entry : 0/0
  2284 ;;		On exit  : 0/0
  2285 ;;		Unchanged: 0/0
  2286 ;; Data sizes:     COMMON   BANK0   BANK1   BANK3   BANK2
  2287 ;;      Params:         0       0       0       0       0
  2288 ;;      Locals:         0       1       0       0       0
  2289 ;;      Temps:          0       2       0       0       0
  2290 ;;      Totals:         0       3       0       0       0
  2291 ;;Total ram usage:        3 bytes
  2292 ;; Hardware stack levels used: 1
  2293 ;; Hardware stack levels required when called: 4
  2294 ;; This function calls:
  2295 ;;		_clcd_print
  2296 ;;		_clcd_putch
  2297 ;;		_clear_screen
  2298 ;; This function is called by:
  2299 ;;		_main
  2300 ;; This function uses a non-reentrant model
  2301 ;;
  2302                           
  2303     09D7                     _washing_program_display:	
  2304                           ;psect for function _washing_program_display
  2305                           
  2306                           
  2307                           ;incstack = 0
  2308                           ; Regs used in _washing_program_display: [wreg-fsr0h+status,2+status,0+btemp+1+pclath+cs
      +                          tack]
  2309                           ;washing_program_display@key stored from wreg
  2310     09D7  1283               	bcf	3,5	;RP0=0, select bank0
  2311     09D8  1303               	bcf	3,6	;RP1=0, select bank0
  2312     09D9  00A7               	movwf	washing_program_display@key
  2313     09DA                     l3789:
  2314                           
  2315                           ;washing_machine_function_def.c: 36:     if (reset_flag == 0X11) {
  2316     09DA  3011               	movlw	17
  2317     09DB  066B               	xorwf	_reset_flag,w
  2318     09DC  1D03               	btfss	3,2
  2319     09DD  29DF               	goto	u5141
  2320     09DE  29E0               	goto	u5140
  2321     09DF                     u5141:
  2322     09DF  29E9               	goto	l3795
  2323     09E0                     u5140:
  2324     09E0                     l3791:
  2325                           
  2326                           ;washing_machine_function_def.c: 37:         clear_screen();
  2327     09E0  160A  118A  2418  120A  158A  	fcall	_clear_screen
  2328     09E5                     l3793:
  2329                           
  2330                           ;washing_machine_function_def.c: 38:         reset_flag = 0XFF;
  2331     09E5  30FF               	movlw	255
  2332     09E6  1283               	bcf	3,5	;RP0=0, select bank0
  2333     09E7  1303               	bcf	3,6	;RP1=0, select bank0
  2334     09E8  00EB               	movwf	_reset_flag
  2335     09E9                     l3795:
  2336                           
  2337                           ;washing_machine_function_def.c: 40:     if (key == 0x37) {
  2338     09E9  3037               	movlw	55
  2339     09EA  0627               	xorwf	washing_program_display@key,w
  2340     09EB  1D03               	btfss	3,2
  2341     09EC  29EE               	goto	u5151
  2342     09ED  29EF               	goto	u5150
  2343     09EE                     u5151:
  2344     09EE  29FD               	goto	l3805
  2345     09EF                     u5150:
  2346     09EF                     l3797:
  2347                           
  2348                           ;washing_machine_function_def.c: 41:         clear_screen();
  2349     09EF  160A  118A  2418  120A  158A  	fcall	_clear_screen
  2350     09F4                     l3799:
  2351                           
  2352                           ;washing_machine_function_def.c: 42:         program_no++;
  2353     09F4  3001               	movlw	1
  2354     09F5  07FA               	addwf	_program_no,f
  2355     09F6                     l3801:
  2356                           
  2357                           ;washing_machine_function_def.c: 43:         if (program_no == 12) {
  2358     09F6  300C               	movlw	12
  2359     09F7  067A               	xorwf	_program_no,w
  2360     09F8  1D03               	btfss	3,2
  2361     09F9  29FB               	goto	u5161
  2362     09FA  29FC               	goto	u5160
  2363     09FB                     u5161:
  2364     09FB  29FD               	goto	l3805
  2365     09FC                     u5160:
  2366     09FC                     l3803:
  2367                           
  2368                           ;washing_machine_function_def.c: 44:             program_no = 0;
  2369     09FC  01FA               	clrf	_program_no
  2370     09FD                     l3805:
  2371                           
  2372                           ;washing_machine_function_def.c: 47:     clcd_print("washing program", (0x80 + 0));
  2373     09FD  3032               	movlw	low (STR_26| (0+32768))
  2374     09FE  1283               	bcf	3,5	;RP0=0, select bank0
  2375     09FF  1303               	bcf	3,6	;RP1=0, select bank0
  2376     0A00  00A0               	movwf	clcd_print@str
  2377     0A01  3090               	movlw	high (STR_26| (0+32768))
  2378     0A02  00A1               	movwf	clcd_print@str+1
  2379     0A03  3080               	movlw	128
  2380     0A04  00A2               	movwf	clcd_print@addr
  2381     0A05  160A  118A  2525  120A  158A  	fcall	_clcd_print
  2382     0A0A                     l3807:
  2383                           
  2384                           ;washing_machine_function_def.c: 48:     clcd_putch('*', (0xC0 + 0));
  2385     0A0A  30C0               	movlw	192
  2386     0A0B  00F8               	movwf	clcd_putch@addr
  2387     0A0C  302A               	movlw	42
  2388     0A0D  160A  118A  243C  120A  158A  	fcall	_clcd_putch
  2389     0A12                     l3809:
  2390                           
  2391                           ;washing_machine_function_def.c: 50:     if (program_no <= 9) {
  2392     0A12  300A               	movlw	10
  2393     0A13  027A               	subwf	_program_no,w
  2394     0A14  1803               	skipnc
  2395     0A15  2A17               	goto	u5171
  2396     0A16  2A18               	goto	u5170
  2397     0A17                     u5171:
  2398     0A17  2A58               	goto	l3813
  2399     0A18                     u5170:
  2400     0A18                     l3811:
  2401                           
  2402                           ;washing_machine_function_def.c: 51:         clcd_print(washing_program[program_no], (0x
      +                          C0 + 1));
  2403     0A18  087A               	movf	_program_no,w
  2404     0A19  1283               	bcf	3,5	;RP0=0, select bank0
  2405     0A1A  1303               	bcf	3,6	;RP1=0, select bank0
  2406     0A1B  00A5               	movwf	??_washing_program_display
  2407     0A1C  0725               	addwf	??_washing_program_display,w
  2408     0A1D  3EA0               	addlw	(low (_washing_program| 0))& (0+255)
  2409     0A1E  0084               	movwf	4
  2410     0A1F  1383               	bcf	3,7	;select IRP bank1
  2411     0A20  0800               	movf	0,w
  2412     0A21  00A0               	movwf	clcd_print@str
  2413     0A22  0A84               	incf	4,f
  2414     0A23  0800               	movf	0,w
  2415     0A24  0384               	decf	4,f
  2416     0A25  00A1               	movwf	clcd_print@str+1
  2417     0A26  30C1               	movlw	193
  2418     0A27  00A2               	movwf	clcd_print@addr
  2419     0A28  160A  118A  2525  120A  158A  	fcall	_clcd_print
  2420                           
  2421                           ;washing_machine_function_def.c: 52:         clcd_print(washing_program[program_no + 1],
      +                           (0x90 + 1));
  2422     0A2D  087A               	movf	_program_no,w
  2423     0A2E  1283               	bcf	3,5	;RP0=0, select bank0
  2424     0A2F  1303               	bcf	3,6	;RP1=0, select bank0
  2425     0A30  00A5               	movwf	??_washing_program_display
  2426     0A31  0725               	addwf	??_washing_program_display,w
  2427     0A32  3EA2               	addlw	(low ((_washing_program| 0+2)))& (0+255)
  2428     0A33  0084               	movwf	4
  2429     0A34  1383               	bcf	3,7	;select IRP bank1
  2430     0A35  0800               	movf	0,w
  2431     0A36  00A0               	movwf	clcd_print@str
  2432     0A37  0A84               	incf	4,f
  2433     0A38  0800               	movf	0,w
  2434     0A39  0384               	decf	4,f
  2435     0A3A  00A1               	movwf	clcd_print@str+1
  2436     0A3B  3091               	movlw	145
  2437     0A3C  00A2               	movwf	clcd_print@addr
  2438     0A3D  160A  118A  2525  120A  158A  	fcall	_clcd_print
  2439                           
  2440                           ;washing_machine_function_def.c: 53:         clcd_print(washing_program[program_no + 2],
      +                           (0xD0 + 1));
  2441     0A42  087A               	movf	_program_no,w
  2442     0A43  1283               	bcf	3,5	;RP0=0, select bank0
  2443     0A44  1303               	bcf	3,6	;RP1=0, select bank0
  2444     0A45  00A5               	movwf	??_washing_program_display
  2445     0A46  0725               	addwf	??_washing_program_display,w
  2446     0A47  3EA4               	addlw	(low ((_washing_program| 0+4)))& (0+255)
  2447     0A48  0084               	movwf	4
  2448     0A49  1383               	bcf	3,7	;select IRP bank1
  2449     0A4A  0800               	movf	0,w
  2450     0A4B  00A0               	movwf	clcd_print@str
  2451     0A4C  0A84               	incf	4,f
  2452     0A4D  0800               	movf	0,w
  2453     0A4E  0384               	decf	4,f
  2454     0A4F  00A1               	movwf	clcd_print@str+1
  2455     0A50  30D1               	movlw	209
  2456     0A51  00A2               	movwf	clcd_print@addr
  2457     0A52  160A  118A  2525  120A  158A  	fcall	_clcd_print
  2458                           
  2459                           ;washing_machine_function_def.c: 54:     } else if (program_no == 10) {
  2460     0A57  2ADD               	goto	l225
  2461     0A58                     l3813:
  2462     0A58  300A               	movlw	10
  2463     0A59  067A               	xorwf	_program_no,w
  2464     0A5A  1D03               	btfss	3,2
  2465     0A5B  2A5D               	goto	u5181
  2466     0A5C  2A5E               	goto	u5180
  2467     0A5D                     u5181:
  2468     0A5D  2A9C               	goto	l3817
  2469     0A5E                     u5180:
  2470     0A5E                     l3815:
  2471                           
  2472                           ;washing_machine_function_def.c: 55:         clcd_print(washing_program[program_no], (0x
      +                          C0 + 1));
  2473     0A5E  087A               	movf	_program_no,w
  2474     0A5F  1283               	bcf	3,5	;RP0=0, select bank0
  2475     0A60  1303               	bcf	3,6	;RP1=0, select bank0
  2476     0A61  00A5               	movwf	??_washing_program_display
  2477     0A62  0725               	addwf	??_washing_program_display,w
  2478     0A63  3EA0               	addlw	(low (_washing_program| 0))& (0+255)
  2479     0A64  0084               	movwf	4
  2480     0A65  1383               	bcf	3,7	;select IRP bank1
  2481     0A66  0800               	movf	0,w
  2482     0A67  00A0               	movwf	clcd_print@str
  2483     0A68  0A84               	incf	4,f
  2484     0A69  0800               	movf	0,w
  2485     0A6A  0384               	decf	4,f
  2486     0A6B  00A1               	movwf	clcd_print@str+1
  2487     0A6C  30C1               	movlw	193
  2488     0A6D  00A2               	movwf	clcd_print@addr
  2489     0A6E  160A  118A  2525  120A  158A  	fcall	_clcd_print
  2490                           
  2491                           ;washing_machine_function_def.c: 56:         clcd_print(washing_program[program_no + 1],
      +                           (0x90 + 1));
  2492     0A73  087A               	movf	_program_no,w
  2493     0A74  1283               	bcf	3,5	;RP0=0, select bank0
  2494     0A75  1303               	bcf	3,6	;RP1=0, select bank0
  2495     0A76  00A5               	movwf	??_washing_program_display
  2496     0A77  0725               	addwf	??_washing_program_display,w
  2497     0A78  3EA2               	addlw	(low ((_washing_program| 0+2)))& (0+255)
  2498     0A79  0084               	movwf	4
  2499     0A7A  1383               	bcf	3,7	;select IRP bank1
  2500     0A7B  0800               	movf	0,w
  2501     0A7C  00A0               	movwf	clcd_print@str
  2502     0A7D  0A84               	incf	4,f
  2503     0A7E  0800               	movf	0,w
  2504     0A7F  0384               	decf	4,f
  2505     0A80  00A1               	movwf	clcd_print@str+1
  2506     0A81  3091               	movlw	145
  2507     0A82  00A2               	movwf	clcd_print@addr
  2508     0A83  160A  118A  2525  120A  158A  	fcall	_clcd_print
  2509                           
  2510                           ;washing_machine_function_def.c: 57:         clcd_print(washing_program[0], (0xD0 + 1));
  2511     0A88  1683               	bsf	3,5	;RP0=1, select bank1
  2512     0A89  1303               	bcf	3,6	;RP1=0, select bank1
  2513     0A8A  0820               	movf	_washing_program^(0+128),w
  2514     0A8B  1283               	bcf	3,5	;RP0=0, select bank0
  2515     0A8C  1303               	bcf	3,6	;RP1=0, select bank0
  2516     0A8D  00A0               	movwf	clcd_print@str
  2517     0A8E  1683               	bsf	3,5	;RP0=1, select bank1
  2518     0A8F  1303               	bcf	3,6	;RP1=0, select bank1
  2519     0A90  0821               	movf	(_washing_program+1)^(0+128),w
  2520     0A91  1283               	bcf	3,5	;RP0=0, select bank0
  2521     0A92  1303               	bcf	3,6	;RP1=0, select bank0
  2522     0A93  00A1               	movwf	clcd_print@str+1
  2523     0A94  30D1               	movlw	209
  2524     0A95  00A2               	movwf	clcd_print@addr
  2525     0A96  160A  118A  2525  120A  158A  	fcall	_clcd_print
  2526                           
  2527                           ;washing_machine_function_def.c: 58:     } else if (program_no == 11) {
  2528     0A9B  2ADD               	goto	l225
  2529     0A9C                     l3817:
  2530     0A9C  300B               	movlw	11
  2531     0A9D  067A               	xorwf	_program_no,w
  2532     0A9E  1D03               	btfss	3,2
  2533     0A9F  2AA1               	goto	u5191
  2534     0AA0  2AA2               	goto	u5190
  2535     0AA1                     u5191:
  2536     0AA1  2ADD               	goto	l225
  2537     0AA2                     u5190:
  2538     0AA2                     l3819:
  2539                           
  2540                           ;washing_machine_function_def.c: 59:         clcd_print(washing_program[program_no], (0x
      +                          C0 + 1));
  2541     0AA2  087A               	movf	_program_no,w
  2542     0AA3  1283               	bcf	3,5	;RP0=0, select bank0
  2543     0AA4  1303               	bcf	3,6	;RP1=0, select bank0
  2544     0AA5  00A5               	movwf	??_washing_program_display
  2545     0AA6  0725               	addwf	??_washing_program_display,w
  2546     0AA7  3EA0               	addlw	(low (_washing_program| 0))& (0+255)
  2547     0AA8  0084               	movwf	4
  2548     0AA9  1383               	bcf	3,7	;select IRP bank1
  2549     0AAA  0800               	movf	0,w
  2550     0AAB  00A0               	movwf	clcd_print@str
  2551     0AAC  0A84               	incf	4,f
  2552     0AAD  0800               	movf	0,w
  2553     0AAE  0384               	decf	4,f
  2554     0AAF  00A1               	movwf	clcd_print@str+1
  2555     0AB0  30C1               	movlw	193
  2556     0AB1  00A2               	movwf	clcd_print@addr
  2557     0AB2  160A  118A  2525  120A  158A  	fcall	_clcd_print
  2558                           
  2559                           ;washing_machine_function_def.c: 60:         clcd_print(washing_program[0], (0x90 + 1));
  2560     0AB7  1683               	bsf	3,5	;RP0=1, select bank1
  2561     0AB8  1303               	bcf	3,6	;RP1=0, select bank1
  2562     0AB9  0820               	movf	_washing_program^(0+128),w
  2563     0ABA  1283               	bcf	3,5	;RP0=0, select bank0
  2564     0ABB  1303               	bcf	3,6	;RP1=0, select bank0
  2565     0ABC  00A0               	movwf	clcd_print@str
  2566     0ABD  1683               	bsf	3,5	;RP0=1, select bank1
  2567     0ABE  1303               	bcf	3,6	;RP1=0, select bank1
  2568     0ABF  0821               	movf	(_washing_program+1)^(0+128),w
  2569     0AC0  1283               	bcf	3,5	;RP0=0, select bank0
  2570     0AC1  1303               	bcf	3,6	;RP1=0, select bank0
  2571     0AC2  00A1               	movwf	clcd_print@str+1
  2572     0AC3  3091               	movlw	145
  2573     0AC4  00A2               	movwf	clcd_print@addr
  2574     0AC5  160A  118A  2525  120A  158A  	fcall	_clcd_print
  2575                           
  2576                           ;washing_machine_function_def.c: 61:         clcd_print(washing_program[1], (0xD0 + 1));
  2577     0ACA  1683               	bsf	3,5	;RP0=1, select bank1
  2578     0ACB  1303               	bcf	3,6	;RP1=0, select bank1
  2579     0ACC  0822               	movf	(low ((_washing_program| 0+2)))^(0+128),w
  2580     0ACD  1283               	bcf	3,5	;RP0=0, select bank0
  2581     0ACE  1303               	bcf	3,6	;RP1=0, select bank0
  2582     0ACF  00A0               	movwf	clcd_print@str
  2583     0AD0  1683               	bsf	3,5	;RP0=1, select bank1
  2584     0AD1  1303               	bcf	3,6	;RP1=0, select bank1
  2585     0AD2  0823               	movf	((low ((_washing_program| 0+2))+1))^(0+128),w
  2586     0AD3  1283               	bcf	3,5	;RP0=0, select bank0
  2587     0AD4  1303               	bcf	3,6	;RP1=0, select bank0
  2588     0AD5  00A1               	movwf	clcd_print@str+1
  2589     0AD6  30D1               	movlw	209
  2590     0AD7  00A2               	movwf	clcd_print@addr
  2591     0AD8  160A  118A  2525  120A  158A  	fcall	_clcd_print
  2592     0ADD                     l225:
  2593     0ADD  0008               	return
  2594     0ADE                     __end_of_washing_program_display:
  2595                           
  2596                           	psect	text3
  2597     0C3A                     __ptext3:	
  2598 ;; *************** function _set_time *****************
  2599 ;; Defined at:
  2600 ;;		line 162 in file "washing_machine_function_def.c"
  2601 ;; Parameters:    Size  Location     Type
  2602 ;;		None
  2603 ;; Auto vars:     Size  Location     Type
  2604 ;;		None
  2605 ;; Return value:  Size  Location     Type
  2606 ;;                  1    wreg      void 
  2607 ;; Registers used:
  2608 ;;		wreg, fsr0l, fsr0h, status,2, status,0
  2609 ;; Tracked objects:
  2610 ;;		On entry : 0/0
  2611 ;;		On exit  : 0/0
  2612 ;;		Unchanged: 0/0
  2613 ;; Data sizes:     COMMON   BANK0   BANK1   BANK3   BANK2
  2614 ;;      Params:         0       0       0       0       0
  2615 ;;      Locals:         0       0       0       0       0
  2616 ;;      Temps:          0       0       0       0       0
  2617 ;;      Totals:         0       0       0       0       0
  2618 ;;Total ram usage:        0 bytes
  2619 ;; Hardware stack levels used: 1
  2620 ;; Hardware stack levels required when called: 1
  2621 ;; This function calls:
  2622 ;;		Nothing
  2623 ;; This function is called by:
  2624 ;;		_main
  2625 ;; This function uses a non-reentrant model
  2626 ;;
  2627                           
  2628     0C3A                     _set_time:	
  2629                           ;psect for function _set_time
  2630                           
  2631     0C3A                     l3657:	
  2632                           ;incstack = 0
  2633                           ; Regs used in _set_time: [wreg-fsr0h+status,2+status,0]
  2634                           
  2635                           
  2636                           ;washing_machine_function_def.c: 163:     switch (program_no) {
  2637     0C3A  2D81               	goto	l3787
  2638     0C3B                     l3659:
  2639                           
  2640                           ;washing_machine_function_def.c: 167:                     min = 0;
  2641     0C3B  1283               	bcf	3,5	;RP0=0, select bank0
  2642     0C3C  1303               	bcf	3,6	;RP1=0, select bank0
  2643     0C3D  01E7               	clrf	_min
  2644     0C3E                     l3661:
  2645                           
  2646                           ;washing_machine_function_def.c: 168:                     sec = 33;
  2647     0C3E  3021               	movlw	33
  2648     0C3F  00E8               	movwf	_sec
  2649                           
  2650                           ;washing_machine_function_def.c: 169:                     break;
  2651     0C40  2DA7               	goto	l350
  2652     0C41                     l3663:
  2653                           
  2654                           ;washing_machine_function_def.c: 173:                     min = 0;
  2655     0C41  1283               	bcf	3,5	;RP0=0, select bank0
  2656     0C42  1303               	bcf	3,6	;RP1=0, select bank0
  2657     0C43  01E7               	clrf	_min
  2658     0C44                     l3665:
  2659                           
  2660                           ;washing_machine_function_def.c: 174:                     sec = 41;
  2661     0C44  3029               	movlw	41
  2662     0C45  00E8               	movwf	_sec
  2663                           
  2664                           ;washing_machine_function_def.c: 175:                     break;
  2665     0C46  2DA7               	goto	l350
  2666     0C47                     l260:	
  2667                           ;washing_machine_function_def.c: 178:                 case 4:
  2668                           
  2669                           
  2670                           ;washing_machine_function_def.c: 179:                     sec = 45;
  2671     0C47  302D               	movlw	45
  2672     0C48  1283               	bcf	3,5	;RP0=0, select bank0
  2673     0C49  1303               	bcf	3,6	;RP1=0, select bank0
  2674     0C4A  00E8               	movwf	_sec
  2675                           
  2676                           ;washing_machine_function_def.c: 180:                     break;
  2677     0C4B  2DA7               	goto	l350
  2678     0C4C                     l3669:
  2679     0C4C  0879               	movf	_level,w
  2680                           
  2681                           ; Switch size 1, requested type "simple"
  2682                           ; Number of cases is 5, Range of values is 0 to 4
  2683                           ; switch strategies available:
  2684                           ; Name         Instructions Cycles
  2685                           ; simple_byte           16     9 (average)
  2686                           ; direct_byte           23     8 (fixed)
  2687                           ; jumptable            260     6 (fixed)
  2688                           ;	Chosen strategy is simple_byte
  2689     0C4D  3A00               	xorlw	0	; case 0
  2690     0C4E  1903               	skipnz
  2691     0C4F  2C41               	goto	l3663
  2692     0C50  3A01               	xorlw	1	; case 1
  2693     0C51  1903               	skipnz
  2694     0C52  2C3B               	goto	l3659
  2695     0C53  3A03               	xorlw	3	; case 2
  2696     0C54  1903               	skipnz
  2697     0C55  2C41               	goto	l3663
  2698     0C56  3A01               	xorlw	1	; case 3
  2699     0C57  1903               	skipnz
  2700     0C58  2C47               	goto	l260
  2701     0C59  3A07               	xorlw	7	; case 4
  2702     0C5A  1903               	skipnz
  2703     0C5B  2C47               	goto	l260
  2704     0C5C  2DA7               	goto	l350
  2705     0C5D                     l3671:
  2706                           
  2707                           ;washing_machine_function_def.c: 187:                     min = 0;
  2708     0C5D  1283               	bcf	3,5	;RP0=0, select bank0
  2709     0C5E  1303               	bcf	3,6	;RP1=0, select bank0
  2710     0C5F  01E7               	clrf	_min
  2711     0C60                     l3673:
  2712                           
  2713                           ;washing_machine_function_def.c: 188:                     sec = 43;
  2714     0C60  302B               	movlw	43
  2715     0C61  00E8               	movwf	_sec
  2716                           
  2717                           ;washing_machine_function_def.c: 189:                     break;
  2718     0C62  2DA7               	goto	l350
  2719     0C63                     l3675:
  2720                           
  2721                           ;washing_machine_function_def.c: 193:                     min = 0;
  2722     0C63  1283               	bcf	3,5	;RP0=0, select bank0
  2723     0C64  1303               	bcf	3,6	;RP1=0, select bank0
  2724     0C65  01E7               	clrf	_min
  2725     0C66                     l3677:
  2726                           
  2727                           ;washing_machine_function_def.c: 194:                     sec = 50;
  2728     0C66  3032               	movlw	50
  2729     0C67  00E8               	movwf	_sec
  2730                           
  2731                           ;washing_machine_function_def.c: 195:                     break;
  2732     0C68  2DA7               	goto	l350
  2733     0C69                     l3679:
  2734                           
  2735                           ;washing_machine_function_def.c: 199:                     min = 0;
  2736     0C69  1283               	bcf	3,5	;RP0=0, select bank0
  2737     0C6A  1303               	bcf	3,6	;RP1=0, select bank0
  2738     0C6B  01E7               	clrf	_min
  2739     0C6C                     l3681:
  2740                           
  2741                           ;washing_machine_function_def.c: 200:                     sec = 57;
  2742     0C6C  3039               	movlw	57
  2743     0C6D  00E8               	movwf	_sec
  2744                           
  2745                           ;washing_machine_function_def.c: 201:                     break;
  2746     0C6E  2DA7               	goto	l350
  2747     0C6F                     l3685:
  2748     0C6F  0879               	movf	_level,w
  2749                           
  2750                           ; Switch size 1, requested type "simple"
  2751                           ; Number of cases is 5, Range of values is 0 to 4
  2752                           ; switch strategies available:
  2753                           ; Name         Instructions Cycles
  2754                           ; simple_byte           16     9 (average)
  2755                           ; direct_byte           23     8 (fixed)
  2756                           ; jumptable            260     6 (fixed)
  2757                           ;	Chosen strategy is simple_byte
  2758     0C70  3A00               	xorlw	0	; case 0
  2759     0C71  1903               	skipnz
  2760     0C72  2C63               	goto	l3675
  2761     0C73  3A01               	xorlw	1	; case 1
  2762     0C74  1903               	skipnz
  2763     0C75  2C5D               	goto	l3671
  2764     0C76  3A03               	xorlw	3	; case 2
  2765     0C77  1903               	skipnz
  2766     0C78  2C63               	goto	l3675
  2767     0C79  3A01               	xorlw	1	; case 3
  2768     0C7A  1903               	skipnz
  2769     0C7B  2C69               	goto	l3679
  2770     0C7C  3A07               	xorlw	7	; case 4
  2771     0C7D  1903               	skipnz
  2772     0C7E  2C69               	goto	l3679
  2773     0C7F  2DA7               	goto	l350
  2774     0C80                     l3687:
  2775                           
  2776                           ;washing_machine_function_def.c: 209:                     min = 0;
  2777     0C80  1283               	bcf	3,5	;RP0=0, select bank0
  2778     0C81  1303               	bcf	3,6	;RP1=0, select bank0
  2779     0C82  01E7               	clrf	_min
  2780     0C83                     l3689:
  2781                           
  2782                           ;washing_machine_function_def.c: 210:                     sec = 26;
  2783     0C83  301A               	movlw	26
  2784     0C84  00E8               	movwf	_sec
  2785                           
  2786                           ;washing_machine_function_def.c: 211:                     break;
  2787     0C85  2DA7               	goto	l350
  2788     0C86                     l3691:
  2789                           
  2790                           ;washing_machine_function_def.c: 215:                     min = 0;
  2791     0C86  1283               	bcf	3,5	;RP0=0, select bank0
  2792     0C87  1303               	bcf	3,6	;RP1=0, select bank0
  2793     0C88  01E7               	clrf	_min
  2794     0C89                     l3693:
  2795                           
  2796                           ;washing_machine_function_def.c: 216:                     sec = 31;
  2797     0C89  301F               	movlw	31
  2798     0C8A  00E8               	movwf	_sec
  2799                           
  2800                           ;washing_machine_function_def.c: 217:                     break;
  2801     0C8B  2DA7               	goto	l350
  2802     0C8C                     l3697:
  2803     0C8C  0879               	movf	_level,w
  2804                           
  2805                           ; Switch size 1, requested type "simple"
  2806                           ; Number of cases is 5, Range of values is 0 to 4
  2807                           ; switch strategies available:
  2808                           ; Name         Instructions Cycles
  2809                           ; simple_byte           16     9 (average)
  2810                           ; direct_byte           23     8 (fixed)
  2811                           ; jumptable            260     6 (fixed)
  2812                           ;	Chosen strategy is simple_byte
  2813     0C8D  3A00               	xorlw	0	; case 0
  2814     0C8E  1903               	skipnz
  2815     0C8F  2C80               	goto	l3687
  2816     0C90  3A01               	xorlw	1	; case 1
  2817     0C91  1903               	skipnz
  2818     0C92  2C80               	goto	l3687
  2819     0C93  3A03               	xorlw	3	; case 2
  2820     0C94  1903               	skipnz
  2821     0C95  2C80               	goto	l3687
  2822     0C96  3A01               	xorlw	1	; case 3
  2823     0C97  1903               	skipnz
  2824     0C98  2C86               	goto	l3691
  2825     0C99  3A07               	xorlw	7	; case 4
  2826     0C9A  1903               	skipnz
  2827     0C9B  2C86               	goto	l3691
  2828     0C9C  2DA7               	goto	l350
  2829     0C9D                     l282:	
  2830                           ;washing_machine_function_def.c: 224:                 case 0:
  2831                           
  2832     0C9D                     l284:	
  2833                           ;washing_machine_function_def.c: 226:                 case 4:
  2834                           
  2835                           
  2836                           ;washing_machine_function_def.c: 227:                     min = 1;
  2837     0C9D  3001               	movlw	1
  2838     0C9E  1283               	bcf	3,5	;RP0=0, select bank0
  2839     0C9F  1303               	bcf	3,6	;RP1=0, select bank0
  2840     0CA0  00E7               	movwf	_min
  2841                           
  2842                           ;washing_machine_function_def.c: 228:                     sec = 16;
  2843     0CA1  3010               	movlw	16
  2844     0CA2  00E8               	movwf	_sec
  2845                           
  2846                           ;washing_machine_function_def.c: 229:                     break;
  2847     0CA3  2DA7               	goto	l350
  2848     0CA4                     l3701:
  2849     0CA4  0879               	movf	_level,w
  2850                           
  2851                           ; Switch size 1, requested type "simple"
  2852                           ; Number of cases is 5, Range of values is 0 to 4
  2853                           ; switch strategies available:
  2854                           ; Name         Instructions Cycles
  2855                           ; simple_byte           16     9 (average)
  2856                           ; direct_byte           23     8 (fixed)
  2857                           ; jumptable            260     6 (fixed)
  2858                           ;	Chosen strategy is simple_byte
  2859     0CA5  3A00               	xorlw	0	; case 0
  2860     0CA6  1903               	skipnz
  2861     0CA7  2C9D               	goto	l284
  2862     0CA8  3A01               	xorlw	1	; case 1
  2863     0CA9  1903               	skipnz
  2864     0CAA  2C9D               	goto	l282
  2865     0CAB  3A03               	xorlw	3	; case 2
  2866     0CAC  1903               	skipnz
  2867     0CAD  2C9D               	goto	l284
  2868     0CAE  3A01               	xorlw	1	; case 3
  2869     0CAF  1903               	skipnz
  2870     0CB0  2C9D               	goto	l284
  2871     0CB1  3A07               	xorlw	7	; case 4
  2872     0CB2  1903               	skipnz
  2873     0CB3  2C9D               	goto	l284
  2874     0CB4  2DA7               	goto	l350
  2875     0CB5                     l290:	
  2876                           ;washing_machine_function_def.c: 236:                 case 0:
  2877                           
  2878     0CB5                     l292:	
  2879                           ;washing_machine_function_def.c: 238:                 case 4:
  2880                           
  2881                           
  2882                           ;washing_machine_function_def.c: 239:                     min = 1;
  2883     0CB5  3001               	movlw	1
  2884     0CB6  1283               	bcf	3,5	;RP0=0, select bank0
  2885     0CB7  1303               	bcf	3,6	;RP1=0, select bank0
  2886     0CB8  00E7               	movwf	_min
  2887                           
  2888                           ;washing_machine_function_def.c: 240:                     sec = 36;
  2889     0CB9  3024               	movlw	36
  2890     0CBA  00E8               	movwf	_sec
  2891                           
  2892                           ;washing_machine_function_def.c: 241:                     break;
  2893     0CBB  2DA7               	goto	l350
  2894     0CBC                     l3705:
  2895     0CBC  0879               	movf	_level,w
  2896                           
  2897                           ; Switch size 1, requested type "simple"
  2898                           ; Number of cases is 5, Range of values is 0 to 4
  2899                           ; switch strategies available:
  2900                           ; Name         Instructions Cycles
  2901                           ; simple_byte           16     9 (average)
  2902                           ; direct_byte           23     8 (fixed)
  2903                           ; jumptable            260     6 (fixed)
  2904                           ;	Chosen strategy is simple_byte
  2905     0CBD  3A00               	xorlw	0	; case 0
  2906     0CBE  1903               	skipnz
  2907     0CBF  2CB5               	goto	l292
  2908     0CC0  3A01               	xorlw	1	; case 1
  2909     0CC1  1903               	skipnz
  2910     0CC2  2CB5               	goto	l290
  2911     0CC3  3A03               	xorlw	3	; case 2
  2912     0CC4  1903               	skipnz
  2913     0CC5  2CB5               	goto	l292
  2914     0CC6  3A01               	xorlw	1	; case 3
  2915     0CC7  1903               	skipnz
  2916     0CC8  2CB5               	goto	l292
  2917     0CC9  3A07               	xorlw	7	; case 4
  2918     0CCA  1903               	skipnz
  2919     0CCB  2CB5               	goto	l292
  2920     0CCC  2DA7               	goto	l350
  2921     0CCD                     l3711:
  2922                           
  2923                           ;washing_machine_function_def.c: 254:                     min = 0;
  2924     0CCD  1283               	bcf	3,5	;RP0=0, select bank0
  2925     0CCE  1303               	bcf	3,6	;RP1=0, select bank0
  2926     0CCF  01E7               	clrf	_min
  2927     0CD0                     l3713:
  2928                           
  2929                           ;washing_machine_function_def.c: 255:                     sec = 30;
  2930     0CD0  301E               	movlw	30
  2931     0CD1  00E8               	movwf	_sec
  2932                           
  2933                           ;washing_machine_function_def.c: 256:                     break;
  2934     0CD2  2DA7               	goto	l350
  2935     0CD3                     l3717:
  2936     0CD3  0879               	movf	_level,w
  2937                           
  2938                           ; Switch size 1, requested type "simple"
  2939                           ; Number of cases is 5, Range of values is 0 to 4
  2940                           ; switch strategies available:
  2941                           ; Name         Instructions Cycles
  2942                           ; simple_byte           16     9 (average)
  2943                           ; direct_byte           23     8 (fixed)
  2944                           ; jumptable            260     6 (fixed)
  2945                           ;	Chosen strategy is simple_byte
  2946     0CD4  3A00               	xorlw	0	; case 0
  2947     0CD5  1903               	skipnz
  2948     0CD6  2C86               	goto	l3691
  2949     0CD7  3A01               	xorlw	1	; case 1
  2950     0CD8  1903               	skipnz
  2951     0CD9  2C86               	goto	l3691
  2952     0CDA  3A03               	xorlw	3	; case 2
  2953     0CDB  1903               	skipnz
  2954     0CDC  2C86               	goto	l3691
  2955     0CDD  3A01               	xorlw	1	; case 3
  2956     0CDE  1903               	skipnz
  2957     0CDF  2CCD               	goto	l3711
  2958     0CE0  3A07               	xorlw	7	; case 4
  2959     0CE1  1903               	skipnz
  2960     0CE2  2CCD               	goto	l3711
  2961     0CE3  2DA7               	goto	l350
  2962     0CE4                     l307:	
  2963                           ;washing_machine_function_def.c: 264:                 case 3:
  2964                           
  2965     0CE4                     l3719:
  2966                           
  2967                           ;washing_machine_function_def.c: 266:                     min = 0;
  2968     0CE4  1283               	bcf	3,5	;RP0=0, select bank0
  2969     0CE5  1303               	bcf	3,6	;RP1=0, select bank0
  2970     0CE6  01E7               	clrf	_min
  2971     0CE7                     l3721:
  2972                           
  2973                           ;washing_machine_function_def.c: 267:                     sec = 29;
  2974     0CE7  301D               	movlw	29
  2975     0CE8  00E8               	movwf	_sec
  2976                           
  2977                           ;washing_machine_function_def.c: 268:                     break;
  2978     0CE9  2DA7               	goto	l350
  2979     0CEA                     l3725:
  2980     0CEA  0879               	movf	_level,w
  2981                           
  2982                           ; Switch size 1, requested type "simple"
  2983                           ; Number of cases is 5, Range of values is 0 to 4
  2984                           ; switch strategies available:
  2985                           ; Name         Instructions Cycles
  2986                           ; simple_byte           16     9 (average)
  2987                           ; direct_byte           23     8 (fixed)
  2988                           ; jumptable            260     6 (fixed)
  2989                           ;	Chosen strategy is simple_byte
  2990     0CEB  3A00               	xorlw	0	; case 0
  2991     0CEC  1903               	skipnz
  2992     0CED  2CE4               	goto	l3719
  2993     0CEE  3A01               	xorlw	1	; case 1
  2994     0CEF  1903               	skipnz
  2995     0CF0  2CE4               	goto	l307
  2996     0CF1  3A03               	xorlw	3	; case 2
  2997     0CF2  1903               	skipnz
  2998     0CF3  2CE4               	goto	l3719
  2999     0CF4  3A01               	xorlw	1	; case 3
  3000     0CF5  1903               	skipnz
  3001     0CF6  2CE4               	goto	l3719
  3002     0CF7  3A07               	xorlw	7	; case 4
  3003     0CF8  1903               	skipnz
  3004     0CF9  2CE4               	goto	l3719
  3005     0CFA  2DA7               	goto	l350
  3006     0CFB                     l3727:
  3007                           
  3008                           ;washing_machine_function_def.c: 274:                     min = 0;
  3009     0CFB  1283               	bcf	3,5	;RP0=0, select bank0
  3010     0CFC  1303               	bcf	3,6	;RP1=0, select bank0
  3011     0CFD  01E7               	clrf	_min
  3012     0CFE                     l3729:
  3013                           
  3014                           ;washing_machine_function_def.c: 275:                     sec = 46;
  3015     0CFE  302E               	movlw	46
  3016     0CFF  00E8               	movwf	_sec
  3017                           
  3018                           ;washing_machine_function_def.c: 276:                     break;
  3019     0D00  2DA7               	goto	l350
  3020     0D01                     l3731:
  3021                           
  3022                           ;washing_machine_function_def.c: 279:                     min = 0;
  3023     0D01  1283               	bcf	3,5	;RP0=0, select bank0
  3024     0D02  1303               	bcf	3,6	;RP1=0, select bank0
  3025     0D03  01E7               	clrf	_min
  3026     0D04                     l3733:
  3027                           
  3028                           ;washing_machine_function_def.c: 280:                     sec = 53;
  3029     0D04  3035               	movlw	53
  3030     0D05  00E8               	movwf	_sec
  3031                           
  3032                           ;washing_machine_function_def.c: 281:                     break;
  3033     0D06  2DA7               	goto	l350
  3034     0D07                     l317:	
  3035                           ;washing_machine_function_def.c: 283:                 case 4:
  3036                           
  3037                           
  3038                           ;washing_machine_function_def.c: 284:                     min = 1;
  3039     0D07  3001               	movlw	1
  3040     0D08  1283               	bcf	3,5	;RP0=0, select bank0
  3041     0D09  1303               	bcf	3,6	;RP1=0, select bank0
  3042     0D0A  00E7               	movwf	_min
  3043     0D0B                     l3735:
  3044                           
  3045                           ;washing_machine_function_def.c: 285:                     sec = 0;
  3046     0D0B  01E8               	clrf	_sec
  3047                           
  3048                           ;washing_machine_function_def.c: 286:                     break;
  3049     0D0C  2DA7               	goto	l350
  3050     0D0D                     l3739:
  3051     0D0D  0879               	movf	_level,w
  3052                           
  3053                           ; Switch size 1, requested type "simple"
  3054                           ; Number of cases is 5, Range of values is 0 to 4
  3055                           ; switch strategies available:
  3056                           ; Name         Instructions Cycles
  3057                           ; simple_byte           16     9 (average)
  3058                           ; direct_byte           23     8 (fixed)
  3059                           ; jumptable            260     6 (fixed)
  3060                           ;	Chosen strategy is simple_byte
  3061     0D0E  3A00               	xorlw	0	; case 0
  3062     0D0F  1903               	skipnz
  3063     0D10  2D01               	goto	l3731
  3064     0D11  3A01               	xorlw	1	; case 1
  3065     0D12  1903               	skipnz
  3066     0D13  2CFB               	goto	l3727
  3067     0D14  3A03               	xorlw	3	; case 2
  3068     0D15  1903               	skipnz
  3069     0D16  2D01               	goto	l3731
  3070     0D17  3A01               	xorlw	1	; case 3
  3071     0D18  1903               	skipnz
  3072     0D19  2D07               	goto	l317
  3073     0D1A  3A07               	xorlw	7	; case 4
  3074     0D1B  1903               	skipnz
  3075     0D1C  2D07               	goto	l317
  3076     0D1D  2DA7               	goto	l350
  3077     0D1E                     l3741:
  3078                           
  3079                           ;washing_machine_function_def.c: 292:                     min = 0;
  3080     0D1E  1283               	bcf	3,5	;RP0=0, select bank0
  3081     0D1F  1303               	bcf	3,6	;RP1=0, select bank0
  3082     0D20  01E7               	clrf	_min
  3083     0D21                     l3743:
  3084                           
  3085                           ;washing_machine_function_def.c: 293:                     sec = 10;
  3086     0D21  300A               	movlw	10
  3087     0D22  00E8               	movwf	_sec
  3088                           
  3089                           ;washing_machine_function_def.c: 294:                     break;
  3090     0D23  2DA7               	goto	l350
  3091     0D24                     l324:	
  3092                           ;washing_machine_function_def.c: 297:                 case 3:
  3093                           
  3094     0D24                     l3745:
  3095                           
  3096                           ;washing_machine_function_def.c: 299:                     min = 0;
  3097     0D24  1283               	bcf	3,5	;RP0=0, select bank0
  3098     0D25  1303               	bcf	3,6	;RP1=0, select bank0
  3099     0D26  01E7               	clrf	_min
  3100     0D27                     l3747:
  3101                           
  3102                           ;washing_machine_function_def.c: 300:                     sec = 20;
  3103     0D27  3014               	movlw	20
  3104     0D28  00E8               	movwf	_sec
  3105                           
  3106                           ;washing_machine_function_def.c: 301:                     break;
  3107     0D29  2DA7               	goto	l350
  3108     0D2A                     l3751:
  3109     0D2A  0879               	movf	_level,w
  3110                           
  3111                           ; Switch size 1, requested type "simple"
  3112                           ; Number of cases is 5, Range of values is 0 to 4
  3113                           ; switch strategies available:
  3114                           ; Name         Instructions Cycles
  3115                           ; simple_byte           16     9 (average)
  3116                           ; direct_byte           23     8 (fixed)
  3117                           ; jumptable            260     6 (fixed)
  3118                           ;	Chosen strategy is simple_byte
  3119     0D2B  3A00               	xorlw	0	; case 0
  3120     0D2C  1903               	skipnz
  3121     0D2D  2D24               	goto	l3745
  3122     0D2E  3A01               	xorlw	1	; case 1
  3123     0D2F  1903               	skipnz
  3124     0D30  2D1E               	goto	l3741
  3125     0D31  3A03               	xorlw	3	; case 2
  3126     0D32  1903               	skipnz
  3127     0D33  2D24               	goto	l324
  3128     0D34  3A01               	xorlw	1	; case 3
  3129     0D35  1903               	skipnz
  3130     0D36  2D24               	goto	l3745
  3131     0D37  3A07               	xorlw	7	; case 4
  3132     0D38  1903               	skipnz
  3133     0D39  2D24               	goto	l3745
  3134     0D3A  2DA7               	goto	l350
  3135     0D3B                     l331:	
  3136                           ;washing_machine_function_def.c: 309:                 case 3:
  3137                           
  3138     0D3B                     l3753:
  3139                           
  3140                           ;washing_machine_function_def.c: 311:                     min = 0;
  3141     0D3B  1283               	bcf	3,5	;RP0=0, select bank0
  3142     0D3C  1303               	bcf	3,6	;RP1=0, select bank0
  3143     0D3D  01E7               	clrf	_min
  3144     0D3E                     l3755:
  3145                           
  3146                           ;washing_machine_function_def.c: 312:                     sec = 6;
  3147     0D3E  3006               	movlw	6
  3148     0D3F  00E8               	movwf	_sec
  3149                           
  3150                           ;washing_machine_function_def.c: 313:                     break;
  3151     0D40  2DA7               	goto	l350
  3152     0D41                     l3759:
  3153     0D41  0879               	movf	_level,w
  3154                           
  3155                           ; Switch size 1, requested type "simple"
  3156                           ; Number of cases is 5, Range of values is 0 to 4
  3157                           ; switch strategies available:
  3158                           ; Name         Instructions Cycles
  3159                           ; simple_byte           16     9 (average)
  3160                           ; direct_byte           23     8 (fixed)
  3161                           ; jumptable            260     6 (fixed)
  3162                           ;	Chosen strategy is simple_byte
  3163     0D42  3A00               	xorlw	0	; case 0
  3164     0D43  1903               	skipnz
  3165     0D44  2D3B               	goto	l3753
  3166     0D45  3A01               	xorlw	1	; case 1
  3167     0D46  1903               	skipnz
  3168     0D47  2D3B               	goto	l331
  3169     0D48  3A03               	xorlw	3	; case 2
  3170     0D49  1903               	skipnz
  3171     0D4A  2D3B               	goto	l3753
  3172     0D4B  3A01               	xorlw	1	; case 3
  3173     0D4C  1903               	skipnz
  3174     0D4D  2D3B               	goto	l3753
  3175     0D4E  3A07               	xorlw	7	; case 4
  3176     0D4F  1903               	skipnz
  3177     0D50  2D3B               	goto	l3753
  3178     0D51  2DA7               	goto	l350
  3179     0D52                     l3761:
  3180                           
  3181                           ;washing_machine_function_def.c: 319:                     min = 0;
  3182     0D52  1283               	bcf	3,5	;RP0=0, select bank0
  3183     0D53  1303               	bcf	3,6	;RP1=0, select bank0
  3184     0D54  01E7               	clrf	_min
  3185     0D55                     l3763:
  3186                           
  3187                           ;washing_machine_function_def.c: 320:                     sec = 16;
  3188     0D55  3010               	movlw	16
  3189     0D56  00E8               	movwf	_sec
  3190                           
  3191                           ;washing_machine_function_def.c: 321:                     break;
  3192     0D57  2DA7               	goto	l350
  3193     0D58                     l3765:
  3194                           
  3195                           ;washing_machine_function_def.c: 324:                     min = 0;
  3196     0D58  1283               	bcf	3,5	;RP0=0, select bank0
  3197     0D59  1303               	bcf	3,6	;RP1=0, select bank0
  3198     0D5A  01E7               	clrf	_min
  3199     0D5B                     l3767:
  3200                           
  3201                           ;washing_machine_function_def.c: 325:                     sec = 21;
  3202     0D5B  3015               	movlw	21
  3203     0D5C  00E8               	movwf	_sec
  3204                           
  3205                           ;washing_machine_function_def.c: 326:                     break;
  3206     0D5D  2DA7               	goto	l350
  3207     0D5E                     l3775:
  3208     0D5E  0879               	movf	_level,w
  3209                           
  3210                           ; Switch size 1, requested type "simple"
  3211                           ; Number of cases is 5, Range of values is 0 to 4
  3212                           ; switch strategies available:
  3213                           ; Name         Instructions Cycles
  3214                           ; simple_byte           16     9 (average)
  3215                           ; direct_byte           23     8 (fixed)
  3216                           ; jumptable            260     6 (fixed)
  3217                           ;	Chosen strategy is simple_byte
  3218     0D5F  3A00               	xorlw	0	; case 0
  3219     0D60  1903               	skipnz
  3220     0D61  2D58               	goto	l3765
  3221     0D62  3A01               	xorlw	1	; case 1
  3222     0D63  1903               	skipnz
  3223     0D64  2D52               	goto	l3761
  3224     0D65  3A03               	xorlw	3	; case 2
  3225     0D66  1903               	skipnz
  3226     0D67  2D58               	goto	l3765
  3227     0D68  3A01               	xorlw	1	; case 3
  3228     0D69  1903               	skipnz
  3229     0D6A  2C80               	goto	l3687
  3230     0D6B  3A07               	xorlw	7	; case 4
  3231     0D6C  1903               	skipnz
  3232     0D6D  2C80               	goto	l3687
  3233     0D6E  2DA7               	goto	l350
  3234     0D6F                     l347:	
  3235                           ;washing_machine_function_def.c: 339:                 case 3:
  3236                           
  3237     0D6F  2C63               	goto	l3675
  3238     0D70                     l3783:
  3239     0D70  0879               	movf	_level,w
  3240                           
  3241                           ; Switch size 1, requested type "simple"
  3242                           ; Number of cases is 5, Range of values is 0 to 4
  3243                           ; switch strategies available:
  3244                           ; Name         Instructions Cycles
  3245                           ; simple_byte           16     9 (average)
  3246                           ; direct_byte           23     8 (fixed)
  3247                           ; jumptable            260     6 (fixed)
  3248                           ;	Chosen strategy is simple_byte
  3249     0D71  3A00               	xorlw	0	; case 0
  3250     0D72  1903               	skipnz
  3251     0D73  2C63               	goto	l3675
  3252     0D74  3A01               	xorlw	1	; case 1
  3253     0D75  1903               	skipnz
  3254     0D76  2D6F               	goto	l347
  3255     0D77  3A03               	xorlw	3	; case 2
  3256     0D78  1903               	skipnz
  3257     0D79  2C63               	goto	l3675
  3258     0D7A  3A01               	xorlw	1	; case 3
  3259     0D7B  1903               	skipnz
  3260     0D7C  2C63               	goto	l3675
  3261     0D7D  3A07               	xorlw	7	; case 4
  3262     0D7E  1903               	skipnz
  3263     0D7F  2C63               	goto	l3675
  3264     0D80  2DA7               	goto	l350
  3265     0D81                     l3787:
  3266     0D81  087A               	movf	_program_no,w
  3267                           
  3268                           ; Switch size 1, requested type "simple"
  3269                           ; Number of cases is 12, Range of values is 0 to 11
  3270                           ; switch strategies available:
  3271                           ; Name         Instructions Cycles
  3272                           ; simple_byte           37    19 (average)
  3273                           ; direct_byte           44     8 (fixed)
  3274                           ; jumptable            260     6 (fixed)
  3275                           ;	Chosen strategy is simple_byte
  3276     0D82  3A00               	xorlw	0	; case 0
  3277     0D83  1903               	skipnz
  3278     0D84  2C4C               	goto	l3669
  3279     0D85  3A01               	xorlw	1	; case 1
  3280     0D86  1903               	skipnz
  3281     0D87  2C6F               	goto	l3685
  3282     0D88  3A03               	xorlw	3	; case 2
  3283     0D89  1903               	skipnz
  3284     0D8A  2C8C               	goto	l3697
  3285     0D8B  3A01               	xorlw	1	; case 3
  3286     0D8C  1903               	skipnz
  3287     0D8D  2CA4               	goto	l3701
  3288     0D8E  3A07               	xorlw	7	; case 4
  3289     0D8F  1903               	skipnz
  3290     0D90  2CBC               	goto	l3705
  3291     0D91  3A01               	xorlw	1	; case 5
  3292     0D92  1903               	skipnz
  3293     0D93  2CD3               	goto	l3717
  3294     0D94  3A03               	xorlw	3	; case 6
  3295     0D95  1903               	skipnz
  3296     0D96  2CEA               	goto	l3725
  3297     0D97  3A01               	xorlw	1	; case 7
  3298     0D98  1903               	skipnz
  3299     0D99  2D0D               	goto	l3739
  3300     0D9A  3A0F               	xorlw	15	; case 8
  3301     0D9B  1903               	skipnz
  3302     0D9C  2D2A               	goto	l3751
  3303     0D9D  3A01               	xorlw	1	; case 9
  3304     0D9E  1903               	skipnz
  3305     0D9F  2D41               	goto	l3759
  3306     0DA0  3A03               	xorlw	3	; case 10
  3307     0DA1  1903               	skipnz
  3308     0DA2  2D5E               	goto	l3775
  3309     0DA3  3A01               	xorlw	1	; case 11
  3310     0DA4  1903               	skipnz
  3311     0DA5  2D70               	goto	l3783
  3312     0DA6  2DA7               	goto	l350
  3313     0DA7                     l350:
  3314     0DA7  0008               	return
  3315     0DA8                     __end_of_set_time:
  3316                           
  3317                           	psect	text4
  3318     004B                     __ptext4:	
  3319 ;; *************** function _run_program *****************
  3320 ;; Defined at:
  3321 ;;		line 84 in file "washing_machine_function_def.c"
  3322 ;; Parameters:    Size  Location     Type
  3323 ;;  key             1    wreg     unsigned char 
  3324 ;; Auto vars:     Size  Location     Type
  3325 ;;  key             1   62[BANK0 ] unsigned char 
  3326 ;; Return value:  Size  Location     Type
  3327 ;;                  1    wreg      void 
  3328 ;; Registers used:
  3329 ;;		wreg, fsr0l, fsr0h, status,2, status,0, btemp+1, pclath, cstack
  3330 ;; Tracked objects:
  3331 ;;		On entry : 0/0
  3332 ;;		On exit  : 0/0
  3333 ;;		Unchanged: 0/0
  3334 ;; Data sizes:     COMMON   BANK0   BANK1   BANK3   BANK2
  3335 ;;      Params:         0       0       0       0       0
  3336 ;;      Locals:         0       1       0       0       0
  3337 ;;      Temps:          0       6       0       0       0
  3338 ;;      Totals:         0       7       0       0       0
  3339 ;;Total ram usage:        7 bytes
  3340 ;; Hardware stack levels used: 1
  3341 ;; Hardware stack levels required when called: 5
  3342 ;; This function calls:
  3343 ;;		___awdiv
  3344 ;;		___awmod
  3345 ;;		___flge
  3346 ;;		___flmul
  3347 ;;		___flsub
  3348 ;;		___fltol
  3349 ;;		___wmul
  3350 ;;		___xxtofl
  3351 ;;		_clcd_print
  3352 ;;		_clcd_putch
  3353 ;;		_clear_screen
  3354 ;;		_door_status_check
  3355 ;; This function is called by:
  3356 ;;		_main
  3357 ;; This function uses a non-reentrant model
  3358 ;;
  3359                           
  3360     004B                     _run_program:	
  3361                           ;psect for function _run_program
  3362                           
  3363                           
  3364                           ;incstack = 0
  3365                           ; Regs used in _run_program: [wreg-fsr0h+status,2+status,0+btemp+1+pclath+cstack]
  3366                           ;run_program@key stored from wreg
  3367     004B  1283               	bcf	3,5	;RP0=0, select bank0
  3368     004C  1303               	bcf	3,6	;RP1=0, select bank0
  3369     004D  00DE               	movwf	run_program@key
  3370     004E                     l4073:
  3371                           
  3372                           ;washing_machine_function_def.c: 85:     door_status_check();
  3373     004E  160A  118A  26A2  120A  118A  	fcall	_door_status_check
  3374     0053                     l4075:
  3375                           
  3376                           ;washing_machine_function_def.c: 86:     if (reset_flag == 0X33) {
  3377     0053  3033               	movlw	51
  3378     0054  1283               	bcf	3,5	;RP0=0, select bank0
  3379     0055  1303               	bcf	3,6	;RP1=0, select bank0
  3380     0056  066B               	xorwf	_reset_flag,w
  3381     0057  1D03               	btfss	3,2
  3382     0058  285A               	goto	u5551
  3383     0059  285B               	goto	u5550
  3384     005A                     u5551:
  3385     005A  2A26               	goto	l4119
  3386     005B                     u5550:
  3387     005B                     l4077:
  3388                           
  3389                           ;washing_machine_function_def.c: 87:         clear_screen();
  3390     005B  160A  118A  2418  120A  118A  	fcall	_clear_screen
  3391     0060                     l4079:
  3392                           
  3393                           ;washing_machine_function_def.c: 88:         clcd_print("Prog:", (0x80 + 0));
  3394     0060  303F               	movlw	low (STR_28| (0+32768))
  3395     0061  1283               	bcf	3,5	;RP0=0, select bank0
  3396     0062  1303               	bcf	3,6	;RP1=0, select bank0
  3397     0063  00A0               	movwf	clcd_print@str
  3398     0064  3091               	movlw	high (STR_28| (0+32768))
  3399     0065  00A1               	movwf	clcd_print@str+1
  3400     0066  3080               	movlw	128
  3401     0067  00A2               	movwf	clcd_print@addr
  3402     0068  160A  118A  2525  120A  118A  	fcall	_clcd_print
  3403     006D                     l4081:
  3404                           
  3405                           ;washing_machine_function_def.c: 89:         clcd_print(washing_program[program_no], (0x
      +                          80 + 6));
  3406     006D  087A               	movf	_program_no,w
  3407     006E  1283               	bcf	3,5	;RP0=0, select bank0
  3408     006F  1303               	bcf	3,6	;RP1=0, select bank0
  3409     0070  00D8               	movwf	??_run_program
  3410     0071  0758               	addwf	??_run_program,w
  3411     0072  3EA0               	addlw	(low (_washing_program| 0))& (0+255)
  3412     0073  0084               	movwf	4
  3413     0074  1383               	bcf	3,7	;select IRP bank1
  3414     0075  0800               	movf	0,w
  3415     0076  00A0               	movwf	clcd_print@str
  3416     0077  0A84               	incf	4,f
  3417     0078  0800               	movf	0,w
  3418     0079  0384               	decf	4,f
  3419     007A  00A1               	movwf	clcd_print@str+1
  3420     007B  3086               	movlw	134
  3421     007C  00A2               	movwf	clcd_print@addr
  3422     007D  160A  118A  2525  120A  118A  	fcall	_clcd_print
  3423     0082                     l4083:
  3424                           
  3425                           ;washing_machine_function_def.c: 90:         clcd_print("Time:", (0xC0 + 0));
  3426     0082  3039               	movlw	low (STR_29| (0+32768))
  3427     0083  1283               	bcf	3,5	;RP0=0, select bank0
  3428     0084  1303               	bcf	3,6	;RP1=0, select bank0
  3429     0085  00A0               	movwf	clcd_print@str
  3430     0086  3091               	movlw	high (STR_29| (0+32768))
  3431     0087  00A1               	movwf	clcd_print@str+1
  3432     0088  30C0               	movlw	192
  3433     0089  00A2               	movwf	clcd_print@addr
  3434     008A  160A  118A  2525  120A  118A  	fcall	_clcd_print
  3435     008F                     l4085:
  3436                           
  3437                           ;washing_machine_function_def.c: 92:         clcd_putch(min / 10 + '0', (0xC0 + 6));
  3438     008F  30C6               	movlw	198
  3439     0090  00F8               	movwf	clcd_putch@addr
  3440     0091  300A               	movlw	10
  3441     0092  00F2               	movwf	___awdiv@divisor
  3442     0093  3000               	movlw	0
  3443     0094  00F3               	movwf	___awdiv@divisor+1
  3444     0095  1283               	bcf	3,5	;RP0=0, select bank0
  3445     0096  1303               	bcf	3,6	;RP1=0, select bank0
  3446     0097  0867               	movf	_min,w
  3447     0098  00D8               	movwf	??_run_program
  3448     0099  01D9               	clrf	??_run_program+1
  3449     009A  0858               	movf	??_run_program,w
  3450     009B  00F4               	movwf	___awdiv@dividend
  3451     009C  0859               	movf	??_run_program+1,w
  3452     009D  00F5               	movwf	___awdiv@dividend+1
  3453     009E  160A  118A  2700  120A  118A  	fcall	___awdiv
  3454     00A3  0872               	movf	?___awdiv,w
  3455     00A4  3E30               	addlw	48
  3456     00A5  160A  118A  243C  120A  118A  	fcall	_clcd_putch
  3457     00AA                     l4087:
  3458                           
  3459                           ;washing_machine_function_def.c: 93:         clcd_putch(min % 10 + '0', (0xC0 + 7));
  3460     00AA  30C7               	movlw	199
  3461     00AB  00F8               	movwf	clcd_putch@addr
  3462     00AC  300A               	movlw	10
  3463     00AD  00F2               	movwf	___awmod@divisor
  3464     00AE  3000               	movlw	0
  3465     00AF  00F3               	movwf	___awmod@divisor+1
  3466     00B0  1283               	bcf	3,5	;RP0=0, select bank0
  3467     00B1  1303               	bcf	3,6	;RP1=0, select bank0
  3468     00B2  0867               	movf	_min,w
  3469     00B3  00D8               	movwf	??_run_program
  3470     00B4  01D9               	clrf	??_run_program+1
  3471     00B5  0858               	movf	??_run_program,w
  3472     00B6  00F4               	movwf	___awmod@dividend
  3473     00B7  0859               	movf	??_run_program+1,w
  3474     00B8  00F5               	movwf	___awmod@dividend+1
  3475     00B9  160A  118A  264B  120A  118A  	fcall	___awmod
  3476     00BE  0872               	movf	?___awmod,w
  3477     00BF  3E30               	addlw	48
  3478     00C0  160A  118A  243C  120A  118A  	fcall	_clcd_putch
  3479     00C5                     l4089:
  3480                           
  3481                           ;washing_machine_function_def.c: 94:         clcd_putch(':', (0xC0 + 8));
  3482     00C5  30C8               	movlw	200
  3483     00C6  00F8               	movwf	clcd_putch@addr
  3484     00C7  303A               	movlw	58
  3485     00C8  160A  118A  243C  120A  118A  	fcall	_clcd_putch
  3486     00CD                     l4091:
  3487                           
  3488                           ;washing_machine_function_def.c: 95:         clcd_putch(sec / 10 + '0', (0xC0 + 9));
  3489     00CD  30C9               	movlw	201
  3490     00CE  00F8               	movwf	clcd_putch@addr
  3491     00CF  300A               	movlw	10
  3492     00D0  00F2               	movwf	___awdiv@divisor
  3493     00D1  3000               	movlw	0
  3494     00D2  00F3               	movwf	___awdiv@divisor+1
  3495     00D3  1283               	bcf	3,5	;RP0=0, select bank0
  3496     00D4  1303               	bcf	3,6	;RP1=0, select bank0
  3497     00D5  0868               	movf	_sec,w
  3498     00D6  00D8               	movwf	??_run_program
  3499     00D7  01D9               	clrf	??_run_program+1
  3500     00D8  0858               	movf	??_run_program,w
  3501     00D9  00F4               	movwf	___awdiv@dividend
  3502     00DA  0859               	movf	??_run_program+1,w
  3503     00DB  00F5               	movwf	___awdiv@dividend+1
  3504     00DC  160A  118A  2700  120A  118A  	fcall	___awdiv
  3505     00E1  0872               	movf	?___awdiv,w
  3506     00E2  3E30               	addlw	48
  3507     00E3  160A  118A  243C  120A  118A  	fcall	_clcd_putch
  3508     00E8                     l4093:
  3509                           
  3510                           ;washing_machine_function_def.c: 96:         clcd_putch(sec % 10 + '0', (0xC0 + 10));
  3511     00E8  30CA               	movlw	202
  3512     00E9  00F8               	movwf	clcd_putch@addr
  3513     00EA  300A               	movlw	10
  3514     00EB  00F2               	movwf	___awmod@divisor
  3515     00EC  3000               	movlw	0
  3516     00ED  00F3               	movwf	___awmod@divisor+1
  3517     00EE  1283               	bcf	3,5	;RP0=0, select bank0
  3518     00EF  1303               	bcf	3,6	;RP1=0, select bank0
  3519     00F0  0868               	movf	_sec,w
  3520     00F1  00D8               	movwf	??_run_program
  3521     00F2  01D9               	clrf	??_run_program+1
  3522     00F3  0858               	movf	??_run_program,w
  3523     00F4  00F4               	movwf	___awmod@dividend
  3524     00F5  0859               	movf	??_run_program+1,w
  3525     00F6  00F5               	movwf	___awmod@dividend+1
  3526     00F7  160A  118A  264B  120A  118A  	fcall	___awmod
  3527     00FC  0872               	movf	?___awmod,w
  3528     00FD  3E30               	addlw	48
  3529     00FE  160A  118A  243C  120A  118A  	fcall	_clcd_putch
  3530     0103                     l4095:
  3531                           
  3532                           ;washing_machine_function_def.c: 97:         reset_flag = 0XFF;
  3533     0103  30FF               	movlw	255
  3534     0104  1283               	bcf	3,5	;RP0=0, select bank0
  3535     0105  1303               	bcf	3,6	;RP1=0, select bank0
  3536     0106  00EB               	movwf	_reset_flag
  3537     0107                     l4097:
  3538                           
  3539                           ;washing_machine_function_def.c: 99:         _delay((unsigned long)((2000)*(20000000/400
      +                          0.0)));
  3540     0107  3033               	movlw	51
  3541     0108  1283               	bcf	3,5	;RP0=0, select bank0
  3542     0109  1303               	bcf	3,6	;RP1=0, select bank0
  3543     010A  00DA               	movwf	??_run_program+2
  3544     010B  30BB               	movlw	187
  3545     010C  00D9               	movwf	??_run_program+1
  3546     010D  30DF               	movlw	223
  3547     010E  00D8               	movwf	??_run_program
  3548     010F                     u5777:
  3549     010F  0BD8               	decfsz	??_run_program,f
  3550     0110  290F               	goto	u5777
  3551     0111  0BD9               	decfsz	??_run_program+1,f
  3552     0112  290F               	goto	u5777
  3553     0113  0BDA               	decfsz	??_run_program+2,f
  3554     0114  290F               	goto	u5777
  3555     0115                     l4099:
  3556                           
  3557                           ;washing_machine_function_def.c: 101:         clear_screen();
  3558     0115  160A  118A  2418  120A  118A  	fcall	_clear_screen
  3559     011A                     l4101:
  3560                           
  3561                           ;washing_machine_function_def.c: 102:         clcd_print("Function", (0x80 + 0));
  3562     011A  3002               	movlw	low (STR_30| (0+32768))
  3563     011B  1283               	bcf	3,5	;RP0=0, select bank0
  3564     011C  1303               	bcf	3,6	;RP1=0, select bank0
  3565     011D  00A0               	movwf	clcd_print@str
  3566     011E  3091               	movlw	high (STR_30| (0+32768))
  3567     011F  00A1               	movwf	clcd_print@str+1
  3568     0120  3080               	movlw	128
  3569     0121  00A2               	movwf	clcd_print@addr
  3570     0122  160A  118A  2525  120A  118A  	fcall	_clcd_print
  3571     0127                     l4103:
  3572                           
  3573                           ;washing_machine_function_def.c: 103:         clcd_print("Time", (0xC0 + 0));
  3574     0127  3057               	movlw	low (STR_31| (0+32768))
  3575     0128  1283               	bcf	3,5	;RP0=0, select bank0
  3576     0129  1303               	bcf	3,6	;RP1=0, select bank0
  3577     012A  00A0               	movwf	clcd_print@str
  3578     012B  3091               	movlw	high (STR_31| (0+32768))
  3579     012C  00A1               	movwf	clcd_print@str+1
  3580     012D  30C0               	movlw	192
  3581     012E  00A2               	movwf	clcd_print@addr
  3582     012F  160A  118A  2525  120A  118A  	fcall	_clcd_print
  3583     0134                     l4105:
  3584                           
  3585                           ;washing_machine_function_def.c: 104:         clcd_print("5:START 6:PAUSE", (0x90 + 0));
  3586     0134  3012               	movlw	low (STR_32| (0+32768))
  3587     0135  1283               	bcf	3,5	;RP0=0, select bank0
  3588     0136  1303               	bcf	3,6	;RP1=0, select bank0
  3589     0137  00A0               	movwf	clcd_print@str
  3590     0138  3090               	movlw	high (STR_32| (0+32768))
  3591     0139  00A1               	movwf	clcd_print@str+1
  3592     013A  3090               	movlw	144
  3593     013B  00A2               	movwf	clcd_print@addr
  3594     013C  160A  118A  2525  120A  118A  	fcall	_clcd_print
  3595     0141                     l4107:
  3596                           
  3597                           ;washing_machine_function_def.c: 106:         total_time = time = min * 60 + sec;
  3598     0141  1283               	bcf	3,5	;RP0=0, select bank0
  3599     0142  1303               	bcf	3,6	;RP1=0, select bank0
  3600     0143  0867               	movf	_min,w
  3601     0144  00D8               	movwf	??_run_program
  3602     0145  01D9               	clrf	??_run_program+1
  3603     0146  0858               	movf	??_run_program,w
  3604     0147  00F2               	movwf	___wmul@multiplier
  3605     0148  0859               	movf	??_run_program+1,w
  3606     0149  00F3               	movwf	___wmul@multiplier+1
  3607     014A  303C               	movlw	60
  3608     014B  00F4               	movwf	___wmul@multiplicand
  3609     014C  3000               	movlw	0
  3610     014D  00F5               	movwf	___wmul@multiplicand+1
  3611     014E  160A  118A  24AE  120A  118A  	fcall	___wmul
  3612     0153  1283               	bcf	3,5	;RP0=0, select bank0
  3613     0154  1303               	bcf	3,6	;RP1=0, select bank0
  3614     0155  0868               	movf	_sec,w
  3615     0156  0772               	addwf	?___wmul,w
  3616     0157  00E3               	movwf	_time
  3617     0158  3000               	movlw	0
  3618     0159  1803               	skipnc
  3619     015A  3001               	movlw	1
  3620     015B  0773               	addwf	?___wmul+1,w
  3621     015C  00E4               	movwf	_time+1
  3622     015D  0864               	movf	_time+1,w
  3623     015E  00E6               	movwf	_total_time+1
  3624     015F  0863               	movf	_time,w
  3625     0160  00E5               	movwf	_total_time
  3626     0161                     l4109:
  3627                           
  3628                           ;washing_machine_function_def.c: 107:         wash_time = (int) total_time * 0.46;
  3629     0161  0865               	movf	_total_time,w
  3630     0162  00F2               	movwf	___xxtofl@val
  3631     0163  0866               	movf	_total_time+1,w
  3632     0164  00F3               	movwf	___xxtofl@val+1
  3633     0165  3000               	movlw	0
  3634     0166  1BF3               	btfsc	___xxtofl@val+1,7
  3635     0167  30FF               	movlw	255
  3636     0168  00F4               	movwf	___xxtofl@val+2
  3637     0169  00F5               	movwf	___xxtofl@val+3
  3638     016A  3001               	movlw	1
  3639     016B  120A  158A  2121  120A  118A  	fcall	___xxtofl
  3640     0170  0875               	movf	?___xxtofl+3,w
  3641     0171  1283               	bcf	3,5	;RP0=0, select bank0
  3642     0172  1303               	bcf	3,6	;RP1=0, select bank0
  3643     0173  00B1               	movwf	___flmul@a+3
  3644     0174  0874               	movf	?___xxtofl+2,w
  3645     0175  00B0               	movwf	___flmul@a+2
  3646     0176  0873               	movf	?___xxtofl+1,w
  3647     0177  00AF               	movwf	___flmul@a+1
  3648     0178  0872               	movf	?___xxtofl,w
  3649     0179  00AE               	movwf	___flmul@a
  3650     017A  303E               	movlw	62
  3651     017B  00AD               	movwf	___flmul@b+3
  3652     017C  30EB               	movlw	235
  3653     017D  00AC               	movwf	___flmul@b+2
  3654     017E  3085               	movlw	133
  3655     017F  00AB               	movwf	___flmul@b+1
  3656     0180  301F               	movlw	31
  3657     0181  00AA               	movwf	___flmul@b
  3658     0182  120A  118A  242B  120A  118A  	fcall	___flmul
  3659     0187  1283               	bcf	3,5	;RP0=0, select bank0
  3660     0188  1303               	bcf	3,6	;RP1=0, select bank0
  3661     0189  082D               	movf	?___flmul+3,w
  3662     018A  00C7               	movwf	___fltol@f1+3
  3663     018B  082C               	movf	?___flmul+2,w
  3664     018C  00C6               	movwf	___fltol@f1+2
  3665     018D  082B               	movf	?___flmul+1,w
  3666     018E  00C5               	movwf	___fltol@f1+1
  3667     018F  082A               	movf	?___flmul,w
  3668     0190  00C4               	movwf	___fltol@f1
  3669     0191  120A  118A  276D  120A  118A  	fcall	___fltol
  3670     0196  1283               	bcf	3,5	;RP0=0, select bank0
  3671     0197  1303               	bcf	3,6	;RP1=0, select bank0
  3672     0198  0845               	movf	?___fltol+1,w
  3673     0199  1683               	bsf	3,5	;RP0=1, select bank1
  3674     019A  1303               	bcf	3,6	;RP1=0, select bank1
  3675     019B  00CB               	movwf	(_wash_time+1)^(0+128)
  3676     019C  1283               	bcf	3,5	;RP0=0, select bank0
  3677     019D  1303               	bcf	3,6	;RP1=0, select bank0
  3678     019E  0844               	movf	?___fltol,w
  3679     019F  1683               	bsf	3,5	;RP0=1, select bank1
  3680     01A0  1303               	bcf	3,6	;RP1=0, select bank1
  3681     01A1  00CA               	movwf	_wash_time^(0+128)
  3682     01A2                     l4111:
  3683                           
  3684                           ;washing_machine_function_def.c: 108:         rinse_time = (unsigned int) total_time * 0
      +                          .12;
  3685     01A2  1283               	bcf	3,5	;RP0=0, select bank0
  3686     01A3  1303               	bcf	3,6	;RP1=0, select bank0
  3687     01A4  0865               	movf	_total_time,w
  3688     01A5  00F2               	movwf	___xxtofl@val
  3689     01A6  0866               	movf	_total_time+1,w
  3690     01A7  00F3               	movwf	___xxtofl@val+1
  3691     01A8  01F4               	clrf	___xxtofl@val+2
  3692     01A9  01F5               	clrf	___xxtofl@val+3
  3693     01AA  3000               	movlw	0
  3694     01AB  120A  158A  2121  120A  118A  	fcall	___xxtofl
  3695     01B0  0875               	movf	?___xxtofl+3,w
  3696     01B1  1283               	bcf	3,5	;RP0=0, select bank0
  3697     01B2  1303               	bcf	3,6	;RP1=0, select bank0
  3698     01B3  00B1               	movwf	___flmul@a+3
  3699     01B4  0874               	movf	?___xxtofl+2,w
  3700     01B5  00B0               	movwf	___flmul@a+2
  3701     01B6  0873               	movf	?___xxtofl+1,w
  3702     01B7  00AF               	movwf	___flmul@a+1
  3703     01B8  0872               	movf	?___xxtofl,w
  3704     01B9  00AE               	movwf	___flmul@a
  3705     01BA  303D               	movlw	61
  3706     01BB  00AD               	movwf	___flmul@b+3
  3707     01BC  30F5               	movlw	245
  3708     01BD  00AC               	movwf	___flmul@b+2
  3709     01BE  30C2               	movlw	194
  3710     01BF  00AB               	movwf	___flmul@b+1
  3711     01C0  308F               	movlw	143
  3712     01C1  00AA               	movwf	___flmul@b
  3713     01C2  120A  118A  242B  120A  118A  	fcall	___flmul
  3714     01C7  1283               	bcf	3,5	;RP0=0, select bank0
  3715     01C8  1303               	bcf	3,6	;RP1=0, select bank0
  3716     01C9  082D               	movf	?___flmul+3,w
  3717     01CA  00C7               	movwf	___fltol@f1+3
  3718     01CB  082C               	movf	?___flmul+2,w
  3719     01CC  00C6               	movwf	___fltol@f1+2
  3720     01CD  082B               	movf	?___flmul+1,w
  3721     01CE  00C5               	movwf	___fltol@f1+1
  3722     01CF  082A               	movf	?___flmul,w
  3723     01D0  00C4               	movwf	___fltol@f1
  3724     01D1  120A  118A  276D  120A  118A  	fcall	___fltol
  3725     01D6  1283               	bcf	3,5	;RP0=0, select bank0
  3726     01D7  1303               	bcf	3,6	;RP1=0, select bank0
  3727     01D8  0845               	movf	?___fltol+1,w
  3728     01D9  1683               	bsf	3,5	;RP0=1, select bank1
  3729     01DA  1303               	bcf	3,6	;RP1=0, select bank1
  3730     01DB  00C9               	movwf	(_rinse_time+1)^(0+128)
  3731     01DC  1283               	bcf	3,5	;RP0=0, select bank0
  3732     01DD  1303               	bcf	3,6	;RP1=0, select bank0
  3733     01DE  0844               	movf	?___fltol,w
  3734     01DF  1683               	bsf	3,5	;RP0=1, select bank1
  3735     01E0  1303               	bcf	3,6	;RP1=0, select bank1
  3736     01E1  00C8               	movwf	_rinse_time^(0+128)
  3737     01E2                     l4113:
  3738                           
  3739                           ;washing_machine_function_def.c: 109:         spin_time = (unsigned int) total_time * 0.
      +                          42;
  3740     01E2  1283               	bcf	3,5	;RP0=0, select bank0
  3741     01E3  1303               	bcf	3,6	;RP1=0, select bank0
  3742     01E4  0865               	movf	_total_time,w
  3743     01E5  00F2               	movwf	___xxtofl@val
  3744     01E6  0866               	movf	_total_time+1,w
  3745     01E7  00F3               	movwf	___xxtofl@val+1
  3746     01E8  01F4               	clrf	___xxtofl@val+2
  3747     01E9  01F5               	clrf	___xxtofl@val+3
  3748     01EA  3000               	movlw	0
  3749     01EB  120A  158A  2121  120A  118A  	fcall	___xxtofl
  3750     01F0  0875               	movf	?___xxtofl+3,w
  3751     01F1  1283               	bcf	3,5	;RP0=0, select bank0
  3752     01F2  1303               	bcf	3,6	;RP1=0, select bank0
  3753     01F3  00B1               	movwf	___flmul@a+3
  3754     01F4  0874               	movf	?___xxtofl+2,w
  3755     01F5  00B0               	movwf	___flmul@a+2
  3756     01F6  0873               	movf	?___xxtofl+1,w
  3757     01F7  00AF               	movwf	___flmul@a+1
  3758     01F8  0872               	movf	?___xxtofl,w
  3759     01F9  00AE               	movwf	___flmul@a
  3760     01FA  303E               	movlw	62
  3761     01FB  00AD               	movwf	___flmul@b+3
  3762     01FC  30D7               	movlw	215
  3763     01FD  00AC               	movwf	___flmul@b+2
  3764     01FE  300A               	movlw	10
  3765     01FF  00AB               	movwf	___flmul@b+1
  3766     0200  303D               	movlw	61
  3767     0201  00AA               	movwf	___flmul@b
  3768     0202  120A  118A  242B  120A  118A  	fcall	___flmul
  3769     0207  1283               	bcf	3,5	;RP0=0, select bank0
  3770     0208  1303               	bcf	3,6	;RP1=0, select bank0
  3771     0209  082D               	movf	?___flmul+3,w
  3772     020A  00C7               	movwf	___fltol@f1+3
  3773     020B  082C               	movf	?___flmul+2,w
  3774     020C  00C6               	movwf	___fltol@f1+2
  3775     020D  082B               	movf	?___flmul+1,w
  3776     020E  00C5               	movwf	___fltol@f1+1
  3777     020F  082A               	movf	?___flmul,w
  3778     0210  00C4               	movwf	___fltol@f1
  3779     0211  120A  118A  276D  120A  118A  	fcall	___fltol
  3780     0216  1283               	bcf	3,5	;RP0=0, select bank0
  3781     0217  1303               	bcf	3,6	;RP1=0, select bank0
  3782     0218  0845               	movf	?___fltol+1,w
  3783     0219  1683               	bsf	3,5	;RP0=1, select bank1
  3784     021A  1303               	bcf	3,6	;RP1=0, select bank1
  3785     021B  00C7               	movwf	(_spin_time+1)^(0+128)
  3786     021C  1283               	bcf	3,5	;RP0=0, select bank0
  3787     021D  1303               	bcf	3,6	;RP1=0, select bank0
  3788     021E  0844               	movf	?___fltol,w
  3789     021F  1683               	bsf	3,5	;RP0=1, select bank1
  3790     0220  1303               	bcf	3,6	;RP1=0, select bank1
  3791     0221  00C6               	movwf	_spin_time^(0+128)
  3792     0222                     l4115:
  3793                           
  3794                           ;washing_machine_function_def.c: 111:         TMR2ON = 1;
  3795     0222  1283               	bcf	3,5	;RP0=0, select bank0
  3796     0223  1303               	bcf	3,6	;RP1=0, select bank0
  3797     0224  1512               	bsf	18,2	;volatile
  3798     0225                     l4117:
  3799                           
  3800                           ;washing_machine_function_def.c: 112:         RC2 = 1;
  3801     0225  1507               	bsf	7,2	;volatile
  3802     0226                     l4119:
  3803                           
  3804                           ;washing_machine_function_def.c: 115:     if (key == 0x1F)
  3805     0226  301F               	movlw	31
  3806     0227  065E               	xorwf	run_program@key,w
  3807     0228  1D03               	btfss	3,2
  3808     0229  2A2B               	goto	u5561
  3809     022A  2A2C               	goto	u5560
  3810     022B                     u5561:
  3811     022B  2A30               	goto	l4123
  3812     022C                     u5560:
  3813     022C                     l4121:
  3814                           
  3815                           ;washing_machine_function_def.c: 116:     {;washing_machine_function_def.c: 117:        
      +                           TMR2ON = 0;
  3816     022C  1112               	bcf	18,2	;volatile
  3817                           
  3818                           ;washing_machine_function_def.c: 118:         RC2 = 0;
  3819     022D  1107               	bcf	7,2	;volatile
  3820                           
  3821                           ;washing_machine_function_def.c: 119:         operational_mode = 0X44;
  3822     022E  3044               	movlw	68
  3823     022F  00EC               	movwf	_operational_mode
  3824     0230                     l4123:
  3825                           
  3826                           ;washing_machine_function_def.c: 121:     total_time = min * 60 + sec;
  3827     0230  0867               	movf	_min,w
  3828     0231  00D8               	movwf	??_run_program
  3829     0232  01D9               	clrf	??_run_program+1
  3830     0233  0858               	movf	??_run_program,w
  3831     0234  00F2               	movwf	___wmul@multiplier
  3832     0235  0859               	movf	??_run_program+1,w
  3833     0236  00F3               	movwf	___wmul@multiplier+1
  3834     0237  303C               	movlw	60
  3835     0238  00F4               	movwf	___wmul@multiplicand
  3836     0239  3000               	movlw	0
  3837     023A  00F5               	movwf	___wmul@multiplicand+1
  3838     023B  160A  118A  24AE  120A  118A  	fcall	___wmul
  3839     0240  1283               	bcf	3,5	;RP0=0, select bank0
  3840     0241  1303               	bcf	3,6	;RP1=0, select bank0
  3841     0242  0868               	movf	_sec,w
  3842     0243  0772               	addwf	?___wmul,w
  3843     0244  00E5               	movwf	_total_time
  3844     0245  3000               	movlw	0
  3845     0246  1803               	skipnc
  3846     0247  3001               	movlw	1
  3847     0248  0773               	addwf	?___wmul+1,w
  3848     0249  00E6               	movwf	_total_time+1
  3849     024A                     l4125:
  3850                           
  3851                           ;washing_machine_function_def.c: 122:     if (program_no <= 7) {
  3852     024A  3008               	movlw	8
  3853     024B  027A               	subwf	_program_no,w
  3854     024C  1803               	skipnc
  3855     024D  2A4F               	goto	u5571
  3856     024E  2A50               	goto	u5570
  3857     024F                     u5571:
  3858     024F  2ABF               	goto	l4137
  3859     0250                     u5570:
  3860     0250                     l4127:
  3861                           
  3862                           ;washing_machine_function_def.c: 123:         if (total_time >= (time - wash_time)) {
  3863     0250  1683               	bsf	3,5	;RP0=1, select bank1
  3864     0251  1303               	bcf	3,6	;RP1=0, select bank1
  3865     0252  084A               	movf	_wash_time^(0+128),w
  3866     0253  1283               	bcf	3,5	;RP0=0, select bank0
  3867     0254  1303               	bcf	3,6	;RP1=0, select bank0
  3868     0255  0263               	subwf	_time,w
  3869     0256  00D8               	movwf	??_run_program
  3870     0257  1683               	bsf	3,5	;RP0=1, select bank1
  3871     0258  1303               	bcf	3,6	;RP1=0, select bank1
  3872     0259  084B               	movf	(_wash_time+1)^(0+128),w
  3873     025A  1C03               	skipc
  3874     025B  0A4B               	incf	(_wash_time+1)^(0+128),w
  3875     025C  1283               	bcf	3,5	;RP0=0, select bank0
  3876     025D  1303               	bcf	3,6	;RP1=0, select bank0
  3877     025E  0264               	subwf	_time+1,w
  3878     025F  00D9               	movwf	??_run_program+1
  3879     0260  0859               	movf	??_run_program+1,w
  3880     0261  0266               	subwf	_total_time+1,w
  3881     0262  1D03               	skipz
  3882     0263  2A66               	goto	u5585
  3883     0264  0858               	movf	??_run_program,w
  3884     0265  0265               	subwf	_total_time,w
  3885     0266                     u5585:
  3886     0266  1C03               	skipc
  3887     0267  2A69               	goto	u5581
  3888     0268  2A6A               	goto	u5580
  3889     0269                     u5581:
  3890     0269  2A76               	goto	l4131
  3891     026A                     u5580:
  3892     026A                     l4129:
  3893                           
  3894                           ;washing_machine_function_def.c: 124:             clcd_print("Wash", (0x80 + 10));
  3895     026A  3061               	movlw	low (STR_33| (0+32768))
  3896     026B  00A0               	movwf	clcd_print@str
  3897     026C  3091               	movlw	high (STR_33| (0+32768))
  3898     026D  00A1               	movwf	clcd_print@str+1
  3899     026E  308A               	movlw	138
  3900     026F  00A2               	movwf	clcd_print@addr
  3901     0270  160A  118A  2525  120A  118A  	fcall	_clcd_print
  3902                           
  3903                           ;washing_machine_function_def.c: 125:         } else if (total_time >= (time - wash_time
      +                           - spin_time)) {
  3904     0275  2B6F               	goto	l4151
  3905     0276                     l4131:
  3906     0276  1683               	bsf	3,5	;RP0=1, select bank1
  3907     0277  1303               	bcf	3,6	;RP1=0, select bank1
  3908     0278  094A               	comf	_wash_time^(0+128),w
  3909     0279  1283               	bcf	3,5	;RP0=0, select bank0
  3910     027A  1303               	bcf	3,6	;RP1=0, select bank0
  3911     027B  00D8               	movwf	??_run_program
  3912     027C  1683               	bsf	3,5	;RP0=1, select bank1
  3913     027D  1303               	bcf	3,6	;RP1=0, select bank1
  3914     027E  094B               	comf	(_wash_time+1)^(0+128),w
  3915     027F  1283               	bcf	3,5	;RP0=0, select bank0
  3916     0280  1303               	bcf	3,6	;RP1=0, select bank0
  3917     0281  00D9               	movwf	??_run_program+1
  3918     0282  0AD8               	incf	??_run_program,f
  3919     0283  1903               	skipnz
  3920     0284  0AD9               	incf	??_run_program+1,f
  3921     0285  1683               	bsf	3,5	;RP0=1, select bank1
  3922     0286  1303               	bcf	3,6	;RP1=0, select bank1
  3923     0287  0846               	movf	_spin_time^(0+128),w
  3924     0288  1283               	bcf	3,5	;RP0=0, select bank0
  3925     0289  1303               	bcf	3,6	;RP1=0, select bank0
  3926     028A  0258               	subwf	??_run_program,w
  3927     028B  00DA               	movwf	??_run_program+2
  3928     028C  1683               	bsf	3,5	;RP0=1, select bank1
  3929     028D  1303               	bcf	3,6	;RP1=0, select bank1
  3930     028E  0847               	movf	(_spin_time+1)^(0+128),w
  3931     028F  1C03               	skipc
  3932     0290  0A47               	incf	(_spin_time+1)^(0+128),w
  3933     0291  1283               	bcf	3,5	;RP0=0, select bank0
  3934     0292  1303               	bcf	3,6	;RP1=0, select bank0
  3935     0293  0259               	subwf	??_run_program+1,w
  3936     0294  00DB               	movwf	??_run_program+3
  3937     0295  0863               	movf	_time,w
  3938     0296  075A               	addwf	??_run_program+2,w
  3939     0297  00DC               	movwf	??_run_program+4
  3940     0298  0864               	movf	_time+1,w
  3941     0299  1803               	skipnc
  3942     029A  0A64               	incf	_time+1,w
  3943     029B  075B               	addwf	??_run_program+3,w
  3944     029C  00DD               	movwf	??_run_program+5
  3945     029D  085D               	movf	??_run_program+5,w
  3946     029E  0266               	subwf	_total_time+1,w
  3947     029F  1D03               	skipz
  3948     02A0  2AA3               	goto	u5595
  3949     02A1  085C               	movf	??_run_program+4,w
  3950     02A2  0265               	subwf	_total_time,w
  3951     02A3                     u5595:
  3952     02A3  1C03               	skipc
  3953     02A4  2AA6               	goto	u5591
  3954     02A5  2AA7               	goto	u5590
  3955     02A6                     u5591:
  3956     02A6  2AB3               	goto	l4135
  3957     02A7                     u5590:
  3958     02A7                     l4133:
  3959                           
  3960                           ;washing_machine_function_def.c: 126:             clcd_print("Rinse", (0x80 + 10));
  3961     02A7  3045               	movlw	low (STR_34| (0+32768))
  3962     02A8  00A0               	movwf	clcd_print@str
  3963     02A9  3091               	movlw	high (STR_34| (0+32768))
  3964     02AA  00A1               	movwf	clcd_print@str+1
  3965     02AB  308A               	movlw	138
  3966     02AC  00A2               	movwf	clcd_print@addr
  3967     02AD  160A  118A  2525  120A  118A  	fcall	_clcd_print
  3968                           
  3969                           ;washing_machine_function_def.c: 127:         } else {
  3970     02B2  2B6F               	goto	l4151
  3971     02B3                     l4135:
  3972                           
  3973                           ;washing_machine_function_def.c: 128:             clcd_print("Spin ", (0x80 + 10));
  3974     02B3  3033               	movlw	low (STR_35| (0+32768))
  3975     02B4  00A0               	movwf	clcd_print@str
  3976     02B5  3091               	movlw	high (STR_35| (0+32768))
  3977     02B6  00A1               	movwf	clcd_print@str+1
  3978     02B7  308A               	movlw	138
  3979     02B8  00A2               	movwf	clcd_print@addr
  3980     02B9  160A  118A  2525  120A  118A  	fcall	_clcd_print
  3981     02BE  2B6F               	goto	l4151
  3982     02BF                     l4137:
  3983     02BF  3008               	movlw	8
  3984     02C0  067A               	xorwf	_program_no,w
  3985     02C1  1D03               	btfss	3,2
  3986     02C2  2AC4               	goto	u5601
  3987     02C3  2AC5               	goto	u5600
  3988     02C4                     u5601:
  3989     02C4  2B52               	goto	l4145
  3990     02C5                     u5600:
  3991     02C5                     l4139:
  3992                           
  3993                           ;washing_machine_function_def.c: 132:         if (total_time >= (time - (0.40 * time))) 
      +                          {
  3994     02C5  0865               	movf	_total_time,w
  3995     02C6  00F2               	movwf	___xxtofl@val
  3996     02C7  0866               	movf	_total_time+1,w
  3997     02C8  00F3               	movwf	___xxtofl@val+1
  3998     02C9  01F4               	clrf	___xxtofl@val+2
  3999     02CA  01F5               	clrf	___xxtofl@val+3
  4000     02CB  3000               	movlw	0
  4001     02CC  120A  158A  2121  120A  118A  	fcall	___xxtofl
  4002     02D1  0875               	movf	?___xxtofl+3,w
  4003     02D2  1283               	bcf	3,5	;RP0=0, select bank0
  4004     02D3  1303               	bcf	3,6	;RP1=0, select bank0
  4005     02D4  00CF               	movwf	___flge@ff1+3
  4006     02D5  0874               	movf	?___xxtofl+2,w
  4007     02D6  00CE               	movwf	___flge@ff1+2
  4008     02D7  0873               	movf	?___xxtofl+1,w
  4009     02D8  00CD               	movwf	___flge@ff1+1
  4010     02D9  0872               	movf	?___xxtofl,w
  4011     02DA  00CC               	movwf	___flge@ff1
  4012     02DB  0863               	movf	_time,w
  4013     02DC  00F2               	movwf	___xxtofl@val
  4014     02DD  0864               	movf	_time+1,w
  4015     02DE  00F3               	movwf	___xxtofl@val+1
  4016     02DF  01F4               	clrf	___xxtofl@val+2
  4017     02E0  01F5               	clrf	___xxtofl@val+3
  4018     02E1  3000               	movlw	0
  4019     02E2  120A  158A  2121  120A  118A  	fcall	___xxtofl
  4020     02E7  0875               	movf	?___xxtofl+3,w
  4021     02E8  1283               	bcf	3,5	;RP0=0, select bank0
  4022     02E9  1303               	bcf	3,6	;RP1=0, select bank0
  4023     02EA  00CB               	movwf	___flsub@b+3
  4024     02EB  0874               	movf	?___xxtofl+2,w
  4025     02EC  00CA               	movwf	___flsub@b+2
  4026     02ED  0873               	movf	?___xxtofl+1,w
  4027     02EE  00C9               	movwf	___flsub@b+1
  4028     02EF  0872               	movf	?___xxtofl,w
  4029     02F0  00C8               	movwf	___flsub@b
  4030     02F1  0863               	movf	_time,w
  4031     02F2  00F2               	movwf	___xxtofl@val
  4032     02F3  0864               	movf	_time+1,w
  4033     02F4  00F3               	movwf	___xxtofl@val+1
  4034     02F5  01F4               	clrf	___xxtofl@val+2
  4035     02F6  01F5               	clrf	___xxtofl@val+3
  4036     02F7  3000               	movlw	0
  4037     02F8  120A  158A  2121  120A  118A  	fcall	___xxtofl
  4038     02FD  0875               	movf	?___xxtofl+3,w
  4039     02FE  1283               	bcf	3,5	;RP0=0, select bank0
  4040     02FF  1303               	bcf	3,6	;RP1=0, select bank0
  4041     0300  00B1               	movwf	___flmul@a+3
  4042     0301  0874               	movf	?___xxtofl+2,w
  4043     0302  00B0               	movwf	___flmul@a+2
  4044     0303  0873               	movf	?___xxtofl+1,w
  4045     0304  00AF               	movwf	___flmul@a+1
  4046     0305  0872               	movf	?___xxtofl,w
  4047     0306  00AE               	movwf	___flmul@a
  4048     0307  303E               	movlw	62
  4049     0308  00AD               	movwf	___flmul@b+3
  4050     0309  30CC               	movlw	204
  4051     030A  00AC               	movwf	___flmul@b+2
  4052     030B  30CC               	movlw	204
  4053     030C  00AB               	movwf	___flmul@b+1
  4054     030D  30CD               	movlw	205
  4055     030E  00AA               	movwf	___flmul@b
  4056     030F  120A  118A  242B  120A  118A  	fcall	___flmul
  4057     0314  1283               	bcf	3,5	;RP0=0, select bank0
  4058     0315  1303               	bcf	3,6	;RP1=0, select bank0
  4059     0316  082D               	movf	?___flmul+3,w
  4060     0317  00C7               	movwf	___flsub@a+3
  4061     0318  082C               	movf	?___flmul+2,w
  4062     0319  00C6               	movwf	___flsub@a+2
  4063     031A  082B               	movf	?___flmul+1,w
  4064     031B  00C5               	movwf	___flsub@a+1
  4065     031C  082A               	movf	?___flmul,w
  4066     031D  00C4               	movwf	___flsub@a
  4067     031E  160A  118A  248A  120A  118A  	fcall	___flsub
  4068     0323  1283               	bcf	3,5	;RP0=0, select bank0
  4069     0324  1303               	bcf	3,6	;RP1=0, select bank0
  4070     0325  0847               	movf	?___flsub+3,w
  4071     0326  00D3               	movwf	___flge@ff2+3
  4072     0327  0846               	movf	?___flsub+2,w
  4073     0328  00D2               	movwf	___flge@ff2+2
  4074     0329  0845               	movf	?___flsub+1,w
  4075     032A  00D1               	movwf	___flge@ff2+1
  4076     032B  0844               	movf	?___flsub,w
  4077     032C  00D0               	movwf	___flge@ff2
  4078     032D  120A  158A  207D  120A  118A  	fcall	___flge
  4079     0332  1C03               	btfss	3,0
  4080     0333  2B35               	goto	u5611
  4081     0334  2B36               	goto	u5610
  4082     0335                     u5611:
  4083     0335  2B44               	goto	l4143
  4084     0336                     u5610:
  4085     0336                     l4141:
  4086                           
  4087                           ;washing_machine_function_def.c: 133:             clcd_print("Rinse", (0x80 + 10));
  4088     0336  3045               	movlw	low (STR_34| (0+32768))
  4089     0337  1283               	bcf	3,5	;RP0=0, select bank0
  4090     0338  1303               	bcf	3,6	;RP1=0, select bank0
  4091     0339  00A0               	movwf	clcd_print@str
  4092     033A  3091               	movlw	high (STR_34| (0+32768))
  4093     033B  00A1               	movwf	clcd_print@str+1
  4094     033C  308A               	movlw	138
  4095     033D  00A2               	movwf	clcd_print@addr
  4096     033E  160A  118A  2525  120A  118A  	fcall	_clcd_print
  4097                           
  4098                           ;washing_machine_function_def.c: 134:         } else {
  4099     0343  2B6F               	goto	l4151
  4100     0344                     l4143:
  4101                           
  4102                           ;washing_machine_function_def.c: 135:             clcd_print("Spin ", (0x80 + 10));
  4103     0344  3033               	movlw	low (STR_35| (0+32768))
  4104     0345  1283               	bcf	3,5	;RP0=0, select bank0
  4105     0346  1303               	bcf	3,6	;RP1=0, select bank0
  4106     0347  00A0               	movwf	clcd_print@str
  4107     0348  3091               	movlw	high (STR_35| (0+32768))
  4108     0349  00A1               	movwf	clcd_print@str+1
  4109     034A  308A               	movlw	138
  4110     034B  00A2               	movwf	clcd_print@addr
  4111     034C  160A  118A  2525  120A  118A  	fcall	_clcd_print
  4112     0351  2B6F               	goto	l4151
  4113     0352                     l4145:
  4114     0352  3009               	movlw	9
  4115     0353  067A               	xorwf	_program_no,w
  4116     0354  1D03               	btfss	3,2
  4117     0355  2B57               	goto	u5621
  4118     0356  2B58               	goto	u5620
  4119     0357                     u5621:
  4120     0357  2B64               	goto	l4149
  4121     0358                     u5620:
  4122     0358                     l4147:
  4123                           
  4124                           ;washing_machine_function_def.c: 138:         clcd_print("Spin ", (0x80 + 10));
  4125     0358  3033               	movlw	low (STR_35| (0+32768))
  4126     0359  00A0               	movwf	clcd_print@str
  4127     035A  3091               	movlw	high (STR_35| (0+32768))
  4128     035B  00A1               	movwf	clcd_print@str+1
  4129     035C  308A               	movlw	138
  4130     035D  00A2               	movwf	clcd_print@addr
  4131     035E  160A  118A  2525  120A  118A  	fcall	_clcd_print
  4132                           
  4133                           ;washing_machine_function_def.c: 139:     } else {
  4134     0363  2B6F               	goto	l4151
  4135     0364                     l4149:
  4136                           
  4137                           ;washing_machine_function_def.c: 140:         clcd_print("wash", (0x80 + 10));
  4138     0364  30BF               	movlw	low ((STR_11+6)| (0+32768))
  4139     0365  00A0               	movwf	clcd_print@str
  4140     0366  3090               	movlw	high ((STR_11+6)| (0+32768))
  4141     0367  00A1               	movwf	clcd_print@str+1
  4142     0368  308A               	movlw	138
  4143     0369  00A2               	movwf	clcd_print@addr
  4144     036A  160A  118A  2525  120A  118A  	fcall	_clcd_print
  4145     036F                     l4151:
  4146                           
  4147                           ;washing_machine_function_def.c: 142:     clcd_putch(min / 10 + '0', (0xC0 + 6));
  4148     036F  30C6               	movlw	198
  4149     0370  00F8               	movwf	clcd_putch@addr
  4150     0371  300A               	movlw	10
  4151     0372  00F2               	movwf	___awdiv@divisor
  4152     0373  3000               	movlw	0
  4153     0374  00F3               	movwf	___awdiv@divisor+1
  4154     0375  1283               	bcf	3,5	;RP0=0, select bank0
  4155     0376  1303               	bcf	3,6	;RP1=0, select bank0
  4156     0377  0867               	movf	_min,w
  4157     0378  00D8               	movwf	??_run_program
  4158     0379  01D9               	clrf	??_run_program+1
  4159     037A  0858               	movf	??_run_program,w
  4160     037B  00F4               	movwf	___awdiv@dividend
  4161     037C  0859               	movf	??_run_program+1,w
  4162     037D  00F5               	movwf	___awdiv@dividend+1
  4163     037E  160A  118A  2700  120A  118A  	fcall	___awdiv
  4164     0383  0872               	movf	?___awdiv,w
  4165     0384  3E30               	addlw	48
  4166     0385  160A  118A  243C  120A  118A  	fcall	_clcd_putch
  4167     038A                     l4153:
  4168                           
  4169                           ;washing_machine_function_def.c: 143:     clcd_putch(min % 10 + '0', (0xC0 + 7));
  4170     038A  30C7               	movlw	199
  4171     038B  00F8               	movwf	clcd_putch@addr
  4172     038C  300A               	movlw	10
  4173     038D  00F2               	movwf	___awmod@divisor
  4174     038E  3000               	movlw	0
  4175     038F  00F3               	movwf	___awmod@divisor+1
  4176     0390  1283               	bcf	3,5	;RP0=0, select bank0
  4177     0391  1303               	bcf	3,6	;RP1=0, select bank0
  4178     0392  0867               	movf	_min,w
  4179     0393  00D8               	movwf	??_run_program
  4180     0394  01D9               	clrf	??_run_program+1
  4181     0395  0858               	movf	??_run_program,w
  4182     0396  00F4               	movwf	___awmod@dividend
  4183     0397  0859               	movf	??_run_program+1,w
  4184     0398  00F5               	movwf	___awmod@dividend+1
  4185     0399  160A  118A  264B  120A  118A  	fcall	___awmod
  4186     039E  0872               	movf	?___awmod,w
  4187     039F  3E30               	addlw	48
  4188     03A0  160A  118A  243C  120A  118A  	fcall	_clcd_putch
  4189     03A5                     l4155:
  4190                           
  4191                           ;washing_machine_function_def.c: 144:     clcd_putch(':', (0xC0 + 8));
  4192     03A5  30C8               	movlw	200
  4193     03A6  00F8               	movwf	clcd_putch@addr
  4194     03A7  303A               	movlw	58
  4195     03A8  160A  118A  243C  120A  118A  	fcall	_clcd_putch
  4196     03AD                     l4157:
  4197                           
  4198                           ;washing_machine_function_def.c: 145:     clcd_putch(sec / 10 + '0', (0xC0 + 9));
  4199     03AD  30C9               	movlw	201
  4200     03AE  00F8               	movwf	clcd_putch@addr
  4201     03AF  300A               	movlw	10
  4202     03B0  00F2               	movwf	___awdiv@divisor
  4203     03B1  3000               	movlw	0
  4204     03B2  00F3               	movwf	___awdiv@divisor+1
  4205     03B3  1283               	bcf	3,5	;RP0=0, select bank0
  4206     03B4  1303               	bcf	3,6	;RP1=0, select bank0
  4207     03B5  0868               	movf	_sec,w
  4208     03B6  00D8               	movwf	??_run_program
  4209     03B7  01D9               	clrf	??_run_program+1
  4210     03B8  0858               	movf	??_run_program,w
  4211     03B9  00F4               	movwf	___awdiv@dividend
  4212     03BA  0859               	movf	??_run_program+1,w
  4213     03BB  00F5               	movwf	___awdiv@dividend+1
  4214     03BC  160A  118A  2700  120A  118A  	fcall	___awdiv
  4215     03C1  0872               	movf	?___awdiv,w
  4216     03C2  3E30               	addlw	48
  4217     03C3  160A  118A  243C  120A  118A  	fcall	_clcd_putch
  4218     03C8                     l4159:
  4219                           
  4220                           ;washing_machine_function_def.c: 146:     clcd_putch(sec % 10 + '0', (0xC0 + 10));
  4221     03C8  30CA               	movlw	202
  4222     03C9  00F8               	movwf	clcd_putch@addr
  4223     03CA  300A               	movlw	10
  4224     03CB  00F2               	movwf	___awmod@divisor
  4225     03CC  3000               	movlw	0
  4226     03CD  00F3               	movwf	___awmod@divisor+1
  4227     03CE  1283               	bcf	3,5	;RP0=0, select bank0
  4228     03CF  1303               	bcf	3,6	;RP1=0, select bank0
  4229     03D0  0868               	movf	_sec,w
  4230     03D1  00D8               	movwf	??_run_program
  4231     03D2  01D9               	clrf	??_run_program+1
  4232     03D3  0858               	movf	??_run_program,w
  4233     03D4  00F4               	movwf	___awmod@dividend
  4234     03D5  0859               	movf	??_run_program+1,w
  4235     03D6  00F5               	movwf	___awmod@dividend+1
  4236     03D7  160A  118A  264B  120A  118A  	fcall	___awmod
  4237     03DC  0872               	movf	?___awmod,w
  4238     03DD  3E30               	addlw	48
  4239     03DE  160A  118A  243C  120A  118A  	fcall	_clcd_putch
  4240     03E3                     l4161:
  4241                           
  4242                           ;washing_machine_function_def.c: 147:     if (min == 0 && sec == 0) {
  4243     03E3  1283               	bcf	3,5	;RP0=0, select bank0
  4244     03E4  1303               	bcf	3,6	;RP1=0, select bank0
  4245     03E5  0867               	movf	_min,w
  4246     03E6  1D03               	btfss	3,2
  4247     03E7  2BE9               	goto	u5631
  4248     03E8  2BEA               	goto	u5630
  4249     03E9                     u5631:
  4250     03E9  2C2A               	goto	l249
  4251     03EA                     u5630:
  4252     03EA                     l4163:
  4253     03EA  0868               	movf	_sec,w
  4254     03EB  1D03               	btfss	3,2
  4255     03EC  2BEE               	goto	u5641
  4256     03ED  2BEF               	goto	u5640
  4257     03EE                     u5641:
  4258     03EE  2C2A               	goto	l249
  4259     03EF                     u5640:
  4260     03EF                     l4165:
  4261                           
  4262                           ;washing_machine_function_def.c: 149:         clear_screen();
  4263     03EF  160A  118A  2418  120A  118A  	fcall	_clear_screen
  4264     03F4                     l4167:
  4265                           
  4266                           ;washing_machine_function_def.c: 150:         RC2 = 0;
  4267     03F4  1283               	bcf	3,5	;RP0=0, select bank0
  4268     03F5  1303               	bcf	3,6	;RP1=0, select bank0
  4269     03F6  1107               	bcf	7,2	;volatile
  4270     03F7                     l4169:
  4271                           
  4272                           ;washing_machine_function_def.c: 151:         RC1 = 1;
  4273     03F7  1487               	bsf	7,1	;volatile
  4274     03F8                     l4171:
  4275                           
  4276                           ;washing_machine_function_def.c: 152:         clcd_print("Progm completed", (0x80 + 0));
  4277     03F8  3022               	movlw	low (STR_40| (0+32768))
  4278     03F9  00A0               	movwf	clcd_print@str
  4279     03FA  3090               	movlw	high (STR_40| (0+32768))
  4280     03FB  00A1               	movwf	clcd_print@str+1
  4281     03FC  3080               	movlw	128
  4282     03FD  00A2               	movwf	clcd_print@addr
  4283     03FE  160A  118A  2525  120A  118A  	fcall	_clcd_print
  4284     0403                     l4173:
  4285                           
  4286                           ;washing_machine_function_def.c: 153:         clcd_print("Remove cloths", (0xC0 + 0));
  4287     0403  3052               	movlw	low (STR_41| (0+32768))
  4288     0404  1283               	bcf	3,5	;RP0=0, select bank0
  4289     0405  1303               	bcf	3,6	;RP1=0, select bank0
  4290     0406  00A0               	movwf	clcd_print@str
  4291     0407  3090               	movlw	high (STR_41| (0+32768))
  4292     0408  00A1               	movwf	clcd_print@str+1
  4293     0409  30C0               	movlw	192
  4294     040A  00A2               	movwf	clcd_print@addr
  4295     040B  160A  118A  2525  120A  118A  	fcall	_clcd_print
  4296     0410                     l4175:
  4297                           
  4298                           ;washing_machine_function_def.c: 154:         _delay((unsigned long)((2000)*(20000000/40
      +                          00.0)));
  4299     0410  3033               	movlw	51
  4300     0411  1283               	bcf	3,5	;RP0=0, select bank0
  4301     0412  1303               	bcf	3,6	;RP1=0, select bank0
  4302     0413  00DA               	movwf	??_run_program+2
  4303     0414  30BB               	movlw	187
  4304     0415  00D9               	movwf	??_run_program+1
  4305     0416  30DF               	movlw	223
  4306     0417  00D8               	movwf	??_run_program
  4307     0418                     u5787:
  4308     0418  0BD8               	decfsz	??_run_program,f
  4309     0419  2C18               	goto	u5787
  4310     041A  0BD9               	decfsz	??_run_program+1,f
  4311     041B  2C18               	goto	u5787
  4312     041C  0BDA               	decfsz	??_run_program+2,f
  4313     041D  2C18               	goto	u5787
  4314     041E                     l4177:
  4315                           
  4316                           ;washing_machine_function_def.c: 155:         RC1 = 0;
  4317     041E  1283               	bcf	3,5	;RP0=0, select bank0
  4318     041F  1303               	bcf	3,6	;RP1=0, select bank0
  4319     0420  1087               	bcf	7,1	;volatile
  4320     0421                     l4179:
  4321                           
  4322                           ;washing_machine_function_def.c: 156:         operational_mode = 0X01;
  4323     0421  3001               	movlw	1
  4324     0422  00EC               	movwf	_operational_mode
  4325     0423                     l4181:
  4326                           
  4327                           ;washing_machine_function_def.c: 157:         reset_flag = 0X11;
  4328     0423  3011               	movlw	17
  4329     0424  00EB               	movwf	_reset_flag
  4330     0425                     l4183:
  4331                           
  4332                           ;washing_machine_function_def.c: 158:         clear_screen();
  4333     0425  160A  118A  2418  120A  118A  	fcall	_clear_screen
  4334     042A                     l249:
  4335     042A  0008               	return
  4336     042B                     __end_of_run_program:
  4337                           
  4338                           	psect	text5
  4339     16A2                     __ptext5:	
  4340 ;; *************** function _door_status_check *****************
  4341 ;; Defined at:
  4342 ;;		line 349 in file "washing_machine_function_def.c"
  4343 ;; Parameters:    Size  Location     Type
  4344 ;;		None
  4345 ;; Auto vars:     Size  Location     Type
  4346 ;;		None
  4347 ;; Return value:  Size  Location     Type
  4348 ;;                  1    wreg      void 
  4349 ;; Registers used:
  4350 ;;		wreg, fsr0l, fsr0h, status,2, status,0, btemp+1, pclath, cstack
  4351 ;; Tracked objects:
  4352 ;;		On entry : 0/0
  4353 ;;		On exit  : 0/0
  4354 ;;		Unchanged: 0/0
  4355 ;; Data sizes:     COMMON   BANK0   BANK1   BANK3   BANK2
  4356 ;;      Params:         0       0       0       0       0
  4357 ;;      Locals:         0       0       0       0       0
  4358 ;;      Temps:          0       0       0       0       0
  4359 ;;      Totals:         0       0       0       0       0
  4360 ;;Total ram usage:        0 bytes
  4361 ;; Hardware stack levels used: 1
  4362 ;; Hardware stack levels required when called: 4
  4363 ;; This function calls:
  4364 ;;		_clcd_print
  4365 ;;		_clear_screen
  4366 ;; This function is called by:
  4367 ;;		_run_program
  4368 ;; This function uses a non-reentrant model
  4369 ;;
  4370                           
  4371     16A2                     _door_status_check:	
  4372                           ;psect for function _door_status_check
  4373                           
  4374     16A2                     l3203:	
  4375                           ;incstack = 0
  4376                           ; Regs used in _door_status_check: [wreg-fsr0h+status,2+status,0+btemp+1+pclath+cstack]
  4377                           
  4378                           
  4379                           ;washing_machine_function_def.c: 351:     if (RB0 == 0)
  4380     16A2  1283               	bcf	3,5	;RP0=0, select bank0
  4381     16A3  1303               	bcf	3,6	;RP1=0, select bank0
  4382     16A4  1806               	btfsc	6,0	;volatile
  4383     16A5  2EA7               	goto	u4091
  4384     16A6  2EA8               	goto	u4090
  4385     16A7                     u4091:
  4386     16A7  2EFF               	goto	l357
  4387     16A8                     u4090:
  4388     16A8                     l3205:
  4389                           
  4390                           ;washing_machine_function_def.c: 352:     {;washing_machine_function_def.c: 353:        
      +                           RC2 = 0;
  4391     16A8  1107               	bcf	7,2	;volatile
  4392                           
  4393                           ;washing_machine_function_def.c: 354:         TMR2ON = 0;
  4394     16A9  1112               	bcf	18,2	;volatile
  4395                           
  4396                           ;washing_machine_function_def.c: 355:         RC1 = 1;
  4397     16AA  1487               	bsf	7,1	;volatile
  4398     16AB                     l3207:
  4399                           
  4400                           ;washing_machine_function_def.c: 356:         clear_screen();
  4401     16AB  160A  118A  2418  160A  118A  	fcall	_clear_screen
  4402     16B0                     l3209:
  4403                           
  4404                           ;washing_machine_function_def.c: 357:         clcd_print("Door is open",(0x80 + 0));
  4405     16B0  3088               	movlw	low (STR_42| (0+32768))
  4406     16B1  1283               	bcf	3,5	;RP0=0, select bank0
  4407     16B2  1303               	bcf	3,6	;RP1=0, select bank0
  4408     16B3  00A0               	movwf	clcd_print@str
  4409     16B4  3090               	movlw	high (STR_42| (0+32768))
  4410     16B5  00A1               	movwf	clcd_print@str+1
  4411     16B6  3080               	movlw	128
  4412     16B7  00A2               	movwf	clcd_print@addr
  4413     16B8  160A  118A  2525  160A  118A  	fcall	_clcd_print
  4414     16BD                     l3211:
  4415                           
  4416                           ;washing_machine_function_def.c: 358:         clcd_print("Please close door",(0xC0 + 0))
      +                          ;
  4417     16BD  3000               	movlw	low (STR_43| (0+32768))
  4418     16BE  1283               	bcf	3,5	;RP0=0, select bank0
  4419     16BF  1303               	bcf	3,6	;RP1=0, select bank0
  4420     16C0  00A0               	movwf	clcd_print@str
  4421     16C1  3090               	movlw	high (STR_43| (0+32768))
  4422     16C2  00A1               	movwf	clcd_print@str+1
  4423     16C3  30C0               	movlw	192
  4424     16C4  00A2               	movwf	clcd_print@addr
  4425     16C5  160A  118A  2525  160A  118A  	fcall	_clcd_print
  4426     16CA                     l354:	
  4427                           ;washing_machine_function_def.c: 361:         {;washing_machine_function_def.c: 363:    
      +                               }
  4428                           
  4429                           
  4430                           ;washing_machine_function_def.c: 360:         while(RB0 == 0)
  4431     16CA  1283               	bcf	3,5	;RP0=0, select bank0
  4432     16CB  1303               	bcf	3,6	;RP1=0, select bank0
  4433     16CC  1C06               	btfss	6,0	;volatile
  4434     16CD  2ECF               	goto	u4101
  4435     16CE  2ED0               	goto	u4100
  4436     16CF                     u4101:
  4437     16CF  2ECA               	goto	l354
  4438     16D0                     u4100:
  4439     16D0                     l356:
  4440                           
  4441                           ;washing_machine_function_def.c: 364:         RC2 = 1;
  4442     16D0  1507               	bsf	7,2	;volatile
  4443                           
  4444                           ;washing_machine_function_def.c: 365:         TMR2ON = 1;
  4445     16D1  1512               	bsf	18,2	;volatile
  4446                           
  4447                           ;washing_machine_function_def.c: 366:         RC1 = 0;
  4448     16D2  1087               	bcf	7,1	;volatile
  4449     16D3                     l3213:
  4450                           
  4451                           ;washing_machine_function_def.c: 367:         clear_screen();
  4452     16D3  160A  118A  2418  160A  118A  	fcall	_clear_screen
  4453     16D8                     l3215:
  4454                           
  4455                           ;washing_machine_function_def.c: 368:         clcd_print("Function", (0x80 + 0));
  4456     16D8  3002               	movlw	low (STR_30| (0+32768))
  4457     16D9  1283               	bcf	3,5	;RP0=0, select bank0
  4458     16DA  1303               	bcf	3,6	;RP1=0, select bank0
  4459     16DB  00A0               	movwf	clcd_print@str
  4460     16DC  3091               	movlw	high (STR_30| (0+32768))
  4461     16DD  00A1               	movwf	clcd_print@str+1
  4462     16DE  3080               	movlw	128
  4463     16DF  00A2               	movwf	clcd_print@addr
  4464     16E0  160A  118A  2525  160A  118A  	fcall	_clcd_print
  4465     16E5                     l3217:
  4466                           
  4467                           ;washing_machine_function_def.c: 369:         clcd_print("Time", (0xC0 + 0));
  4468     16E5  3057               	movlw	low (STR_31| (0+32768))
  4469     16E6  1283               	bcf	3,5	;RP0=0, select bank0
  4470     16E7  1303               	bcf	3,6	;RP1=0, select bank0
  4471     16E8  00A0               	movwf	clcd_print@str
  4472     16E9  3091               	movlw	high (STR_31| (0+32768))
  4473     16EA  00A1               	movwf	clcd_print@str+1
  4474     16EB  30C0               	movlw	192
  4475     16EC  00A2               	movwf	clcd_print@addr
  4476     16ED  160A  118A  2525  160A  118A  	fcall	_clcd_print
  4477     16F2                     l3219:
  4478                           
  4479                           ;washing_machine_function_def.c: 370:         clcd_print("5:START 6:PAUSE", (0x90 + 0));
  4480     16F2  3012               	movlw	low (STR_32| (0+32768))
  4481     16F3  1283               	bcf	3,5	;RP0=0, select bank0
  4482     16F4  1303               	bcf	3,6	;RP1=0, select bank0
  4483     16F5  00A0               	movwf	clcd_print@str
  4484     16F6  3090               	movlw	high (STR_32| (0+32768))
  4485     16F7  00A1               	movwf	clcd_print@str+1
  4486     16F8  3090               	movlw	144
  4487     16F9  00A2               	movwf	clcd_print@addr
  4488     16FA  160A  118A  2525  160A  118A  	fcall	_clcd_print
  4489     16FF                     l357:
  4490     16FF  0008               	return
  4491     1700                     __end_of_door_status_check:
  4492                           
  4493                           	psect	text6
  4494     1418                     __ptext6:	
  4495 ;; *************** function _clear_screen *****************
  4496 ;; Defined at:
  4497 ;;		line 12 in file "washing_machine_function_def.c"
  4498 ;; Parameters:    Size  Location     Type
  4499 ;;		None
  4500 ;; Auto vars:     Size  Location     Type
  4501 ;;		None
  4502 ;; Return value:  Size  Location     Type
  4503 ;;                  1    wreg      void 
  4504 ;; Registers used:
  4505 ;;		wreg, status,2, status,0, pclath, cstack
  4506 ;; Tracked objects:
  4507 ;;		On entry : 0/0
  4508 ;;		On exit  : 0/0
  4509 ;;		Unchanged: 0/0
  4510 ;; Data sizes:     COMMON   BANK0   BANK1   BANK3   BANK2
  4511 ;;      Params:         0       0       0       0       0
  4512 ;;      Locals:         0       0       0       0       0
  4513 ;;      Temps:          2       0       0       0       0
  4514 ;;      Totals:         2       0       0       0       0
  4515 ;;Total ram usage:        2 bytes
  4516 ;; Hardware stack levels used: 1
  4517 ;; Hardware stack levels required when called: 3
  4518 ;; This function calls:
  4519 ;;		_clcd_write
  4520 ;; This function is called by:
  4521 ;;		_main
  4522 ;;		_washing_program_display
  4523 ;;		_water_level_screen
  4524 ;;		_run_program
  4525 ;;		_door_status_check
  4526 ;; This function uses a non-reentrant model
  4527 ;;
  4528                           
  4529     1418                     _clear_screen:	
  4530                           ;psect for function _clear_screen
  4531                           
  4532     1418                     l2959:	
  4533                           ;incstack = 0
  4534                           ; Regs used in _clear_screen: [wreg+status,2+status,0+pclath+cstack]
  4535                           
  4536                           
  4537                           ;washing_machine_function_def.c: 13:     clcd_write(0x01, 0);
  4538     1418  01F4               	clrf	clcd_write@mode
  4539     1419  3001               	movlw	1
  4540     141A  160A  118A  24D3  160A  118A  	fcall	_clcd_write
  4541     141F                     l2961:
  4542                           
  4543                           ;washing_machine_function_def.c: 14:     _delay((unsigned long)((500)*(20000000/4000000.
      +                          0)));
  4544     141F  3004               	movlw	4
  4545     1420  00F8               	movwf	??_clear_screen+1
  4546     1421  303D               	movlw	61
  4547     1422  00F7               	movwf	??_clear_screen
  4548     1423                     u5797:
  4549     1423  0BF7               	decfsz	??_clear_screen,f
  4550     1424  2C23               	goto	u5797
  4551     1425  0BF8               	decfsz	??_clear_screen+1,f
  4552     1426  2C23               	goto	u5797
  4553     1427  2C28               	nop2
  4554     1428                     l207:
  4555     1428  0008               	return
  4556     1429                     __end_of_clear_screen:
  4557                           
  4558                           	psect	text7
  4559     0921                     __ptext7:	
  4560 ;; *************** function ___xxtofl *****************
  4561 ;; Defined at:
  4562 ;;		line 10 in file "/opt/microchip/xc8/v3.00/pic/sources/c99/common/xxtofl.c"
  4563 ;; Parameters:    Size  Location     Type
  4564 ;;  sign            1    wreg     unsigned char 
  4565 ;;  val             4    2[COMMON] long 
  4566 ;; Auto vars:     Size  Location     Type
  4567 ;;  sign            1    4[BANK0 ] unsigned char 
  4568 ;;  arg             4    6[BANK0 ] unsigned long 
  4569 ;;  exp             1    5[BANK0 ] unsigned char 
  4570 ;; Return value:  Size  Location     Type
  4571 ;;                  4    2[COMMON] unsigned char 
  4572 ;; Registers used:
  4573 ;;		wreg, status,2, status,0
  4574 ;; Tracked objects:
  4575 ;;		On entry : 0/0
  4576 ;;		On exit  : 0/0
  4577 ;;		Unchanged: 0/0
  4578 ;; Data sizes:     COMMON   BANK0   BANK1   BANK3   BANK2
  4579 ;;      Params:         4       0       0       0       0
  4580 ;;      Locals:         0       6       0       0       0
  4581 ;;      Temps:          0       4       0       0       0
  4582 ;;      Totals:         4      10       0       0       0
  4583 ;;Total ram usage:       14 bytes
  4584 ;; Hardware stack levels used: 1
  4585 ;; Hardware stack levels required when called: 1
  4586 ;; This function calls:
  4587 ;;		Nothing
  4588 ;; This function is called by:
  4589 ;;		_run_program
  4590 ;; This function uses a non-reentrant model
  4591 ;;
  4592                           
  4593     0921                     ___xxtofl:	
  4594                           ;psect for function ___xxtofl
  4595                           
  4596                           
  4597                           ;incstack = 0
  4598                           ; Regs used in ___xxtofl: [wreg+status,2+status,0]
  4599                           ;___xxtofl@sign stored from wreg
  4600     0921  1283               	bcf	3,5	;RP0=0, select bank0
  4601     0922  1303               	bcf	3,6	;RP1=0, select bank0
  4602     0923  00A4               	movwf	___xxtofl@sign
  4603     0924                     l3521:
  4604     0924  0824               	movf	___xxtofl@sign,w
  4605     0925  1903               	btfsc	3,2
  4606     0926  2928               	goto	u4881
  4607     0927  2929               	goto	u4880
  4608     0928                     u4881:
  4609     0928  293D               	goto	l3527
  4610     0929                     u4880:
  4611     0929                     l3523:
  4612     0929  1FF5               	btfss	___xxtofl@val+3,7
  4613     092A  292C               	goto	u4891
  4614     092B  292D               	goto	u4890
  4615     092C                     u4891:
  4616     092C  293D               	goto	l3527
  4617     092D                     u4890:
  4618     092D                     l3525:
  4619     092D  0972               	comf	___xxtofl@val,w
  4620     092E  00A6               	movwf	___xxtofl@arg
  4621     092F  0973               	comf	___xxtofl@val+1,w
  4622     0930  00A7               	movwf	___xxtofl@arg+1
  4623     0931  0974               	comf	___xxtofl@val+2,w
  4624     0932  00A8               	movwf	___xxtofl@arg+2
  4625     0933  0975               	comf	___xxtofl@val+3,w
  4626     0934  00A9               	movwf	___xxtofl@arg+3
  4627     0935  0AA6               	incf	___xxtofl@arg,f
  4628     0936  1903               	skipnz
  4629     0937  0AA7               	incf	___xxtofl@arg+1,f
  4630     0938  1903               	skipnz
  4631     0939  0AA8               	incf	___xxtofl@arg+2,f
  4632     093A  1903               	skipnz
  4633     093B  0AA9               	incf	___xxtofl@arg+3,f
  4634     093C  2945               	goto	l884
  4635     093D                     l3527:
  4636     093D  0875               	movf	___xxtofl@val+3,w
  4637     093E  00A9               	movwf	___xxtofl@arg+3
  4638     093F  0874               	movf	___xxtofl@val+2,w
  4639     0940  00A8               	movwf	___xxtofl@arg+2
  4640     0941  0873               	movf	___xxtofl@val+1,w
  4641     0942  00A7               	movwf	___xxtofl@arg+1
  4642     0943  0872               	movf	___xxtofl@val,w
  4643     0944  00A6               	movwf	___xxtofl@arg
  4644     0945                     l884:
  4645     0945  0875               	movf	___xxtofl@val+3,w
  4646     0946  0474               	iorwf	___xxtofl@val+2,w
  4647     0947  0473               	iorwf	___xxtofl@val+1,w
  4648     0948  0472               	iorwf	___xxtofl@val,w
  4649     0949  1D03               	skipz
  4650     094A  294C               	goto	u4901
  4651     094B  294D               	goto	u4900
  4652     094C                     u4901:
  4653     094C  2956               	goto	l885
  4654     094D                     u4900:
  4655     094D                     l3529:
  4656     094D  3000               	movlw	0
  4657     094E  00F5               	movwf	?___xxtofl+3
  4658     094F  3000               	movlw	0
  4659     0950  00F4               	movwf	?___xxtofl+2
  4660     0951  3000               	movlw	0
  4661     0952  00F3               	movwf	?___xxtofl+1
  4662     0953  3000               	movlw	0
  4663     0954  00F2               	movwf	?___xxtofl
  4664     0955  29D6               	goto	l886
  4665     0956                     l885:
  4666     0956  3096               	movlw	150
  4667     0957  00A5               	movwf	___xxtofl@exp
  4668     0958  2964               	goto	l3535
  4669     0959                     l3533:
  4670     0959  3001               	movlw	1
  4671     095A  07A5               	addwf	___xxtofl@exp,f
  4672     095B  3001               	movlw	1
  4673     095C                     u4915:
  4674     095C  1003               	clrc
  4675     095D  0CA9               	rrf	___xxtofl@arg+3,f
  4676     095E  0CA8               	rrf	___xxtofl@arg+2,f
  4677     095F  0CA7               	rrf	___xxtofl@arg+1,f
  4678     0960  0CA6               	rrf	___xxtofl@arg,f
  4679     0961  3EFF               	addlw	-1
  4680     0962  1D03               	skipz
  4681     0963  295C               	goto	u4915
  4682     0964                     l3535:
  4683     0964  30FE               	movlw	254
  4684     0965  0529               	andwf	___xxtofl@arg+3,w
  4685     0966  1D03               	btfss	3,2
  4686     0967  2969               	goto	u4921
  4687     0968  296A               	goto	u4920
  4688     0969                     u4921:
  4689     0969  2959               	goto	l3533
  4690     096A                     u4920:
  4691     096A  2984               	goto	l890
  4692     096B                     l3537:
  4693     096B  3001               	movlw	1
  4694     096C  07A5               	addwf	___xxtofl@exp,f
  4695     096D                     l3539:
  4696     096D  3001               	movlw	1
  4697     096E  07A6               	addwf	___xxtofl@arg,f
  4698     096F  3000               	movlw	0
  4699     0970  1803               	skipnc
  4700     0971  3001               	movlw	1
  4701     0972  07A7               	addwf	___xxtofl@arg+1,f
  4702     0973  3000               	movlw	0
  4703     0974  1803               	skipnc
  4704     0975  3001               	movlw	1
  4705     0976  07A8               	addwf	___xxtofl@arg+2,f
  4706     0977  3000               	movlw	0
  4707     0978  1803               	skipnc
  4708     0979  3001               	movlw	1
  4709     097A  07A9               	addwf	___xxtofl@arg+3,f
  4710     097B                     l3541:
  4711     097B  3001               	movlw	1
  4712     097C                     u4935:
  4713     097C  1003               	clrc
  4714     097D  0CA9               	rrf	___xxtofl@arg+3,f
  4715     097E  0CA8               	rrf	___xxtofl@arg+2,f
  4716     097F  0CA7               	rrf	___xxtofl@arg+1,f
  4717     0980  0CA6               	rrf	___xxtofl@arg,f
  4718     0981  3EFF               	addlw	-1
  4719     0982  1D03               	skipz
  4720     0983  297C               	goto	u4935
  4721     0984                     l890:
  4722     0984  30FF               	movlw	255
  4723     0985  0529               	andwf	___xxtofl@arg+3,w
  4724     0986  1D03               	btfss	3,2
  4725     0987  2989               	goto	u4941
  4726     0988  298A               	goto	u4940
  4727     0989                     u4941:
  4728     0989  296B               	goto	l3537
  4729     098A                     u4940:
  4730     098A  2996               	goto	l3545
  4731     098B                     l3543:
  4732     098B  3001               	movlw	1
  4733     098C  02A5               	subwf	___xxtofl@exp,f
  4734     098D  3001               	movlw	1
  4735     098E  00A0               	movwf	??___xxtofl
  4736     098F                     u4955:
  4737     098F  1003               	clrc
  4738     0990  0DA6               	rlf	___xxtofl@arg,f
  4739     0991  0DA7               	rlf	___xxtofl@arg+1,f
  4740     0992  0DA8               	rlf	___xxtofl@arg+2,f
  4741     0993  0DA9               	rlf	___xxtofl@arg+3,f
  4742     0994  0BA0               	decfsz	??___xxtofl,f
  4743     0995  298F               	goto	u4955
  4744     0996                     l3545:
  4745     0996  1BA8               	btfsc	___xxtofl@arg+2,7
  4746     0997  2999               	goto	u4961
  4747     0998  299A               	goto	u4960
  4748     0999                     u4961:
  4749     0999  29A0               	goto	l897
  4750     099A                     u4960:
  4751     099A                     l3547:
  4752     099A  3002               	movlw	2
  4753     099B  0225               	subwf	___xxtofl@exp,w
  4754     099C  1803               	skipnc
  4755     099D  299F               	goto	u4971
  4756     099E  29A0               	goto	u4970
  4757     099F                     u4971:
  4758     099F  298B               	goto	l3543
  4759     09A0                     u4970:
  4760     09A0                     l897:
  4761     09A0  1825               	btfsc	___xxtofl@exp,0
  4762     09A1  29A3               	goto	u4981
  4763     09A2  29A4               	goto	u4980
  4764     09A3                     u4981:
  4765     09A3  29AC               	goto	l898
  4766     09A4                     u4980:
  4767     09A4                     l3549:
  4768     09A4  30FF               	movlw	255
  4769     09A5  05A6               	andwf	___xxtofl@arg,f
  4770     09A6  30FF               	movlw	255
  4771     09A7  05A7               	andwf	___xxtofl@arg+1,f
  4772     09A8  307F               	movlw	127
  4773     09A9  05A8               	andwf	___xxtofl@arg+2,f
  4774     09AA  30FF               	movlw	255
  4775     09AB  05A9               	andwf	___xxtofl@arg+3,f
  4776     09AC                     l898:
  4777     09AC  1003               	clrc
  4778     09AD  0CA5               	rrf	___xxtofl@exp,f
  4779     09AE                     l3551:
  4780     09AE  0825               	movf	___xxtofl@exp,w
  4781     09AF  00A0               	movwf	??___xxtofl
  4782     09B0  01A1               	clrf	??___xxtofl+1
  4783     09B1  01A2               	clrf	??___xxtofl+2
  4784     09B2  01A3               	clrf	??___xxtofl+3
  4785     09B3  3018               	movlw	24
  4786     09B4                     u4995:
  4787     09B4  1003               	clrc
  4788     09B5  0DA0               	rlf	??___xxtofl,f
  4789     09B6  0DA1               	rlf	??___xxtofl+1,f
  4790     09B7  0DA2               	rlf	??___xxtofl+2,f
  4791     09B8  0DA3               	rlf	??___xxtofl+3,f
  4792     09B9                     u4990:
  4793     09B9  3EFF               	addlw	-1
  4794     09BA  1D03               	skipz
  4795     09BB  29B4               	goto	u4995
  4796     09BC  0820               	movf	??___xxtofl,w
  4797     09BD  04A6               	iorwf	___xxtofl@arg,f
  4798     09BE  0821               	movf	??___xxtofl+1,w
  4799     09BF  04A7               	iorwf	___xxtofl@arg+1,f
  4800     09C0  0822               	movf	??___xxtofl+2,w
  4801     09C1  04A8               	iorwf	___xxtofl@arg+2,f
  4802     09C2  0823               	movf	??___xxtofl+3,w
  4803     09C3  04A9               	iorwf	___xxtofl@arg+3,f
  4804     09C4                     l3553:
  4805     09C4  0824               	movf	___xxtofl@sign,w
  4806     09C5  1903               	btfsc	3,2
  4807     09C6  29C8               	goto	u5001
  4808     09C7  29C9               	goto	u5000
  4809     09C8                     u5001:
  4810     09C8  29CE               	goto	l3559
  4811     09C9                     u5000:
  4812     09C9                     l3555:
  4813     09C9  1FF5               	btfss	___xxtofl@val+3,7
  4814     09CA  29CC               	goto	u5011
  4815     09CB  29CD               	goto	u5010
  4816     09CC                     u5011:
  4817     09CC  29CE               	goto	l3559
  4818     09CD                     u5010:
  4819     09CD                     l3557:
  4820     09CD  17A9               	bsf	___xxtofl@arg+3,7
  4821     09CE                     l3559:
  4822     09CE  0829               	movf	___xxtofl@arg+3,w
  4823     09CF  00F5               	movwf	?___xxtofl+3
  4824     09D0  0828               	movf	___xxtofl@arg+2,w
  4825     09D1  00F4               	movwf	?___xxtofl+2
  4826     09D2  0827               	movf	___xxtofl@arg+1,w
  4827     09D3  00F3               	movwf	?___xxtofl+1
  4828     09D4  0826               	movf	___xxtofl@arg,w
  4829     09D5  00F2               	movwf	?___xxtofl
  4830     09D6                     l886:
  4831     09D6  0008               	return
  4832     09D7                     __end_of___xxtofl:
  4833                           
  4834                           	psect	text8
  4835     14AE                     __ptext8:	
  4836 ;; *************** function ___wmul *****************
  4837 ;; Defined at:
  4838 ;;		line 15 in file "/opt/microchip/xc8/v3.00/pic/sources/c99/common/Umul16.c"
  4839 ;; Parameters:    Size  Location     Type
  4840 ;;  multiplier      2    2[COMMON] unsigned int 
  4841 ;;  multiplicand    2    4[COMMON] unsigned int 
  4842 ;; Auto vars:     Size  Location     Type
  4843 ;;  product         2    6[COMMON] unsigned int 
  4844 ;; Return value:  Size  Location     Type
  4845 ;;                  2    2[COMMON] unsigned int 
  4846 ;; Registers used:
  4847 ;;		wreg, status,2, status,0
  4848 ;; Tracked objects:
  4849 ;;		On entry : 0/0
  4850 ;;		On exit  : 0/0
  4851 ;;		Unchanged: 0/0
  4852 ;; Data sizes:     COMMON   BANK0   BANK1   BANK3   BANK2
  4853 ;;      Params:         4       0       0       0       0
  4854 ;;      Locals:         2       0       0       0       0
  4855 ;;      Temps:          0       0       0       0       0
  4856 ;;      Totals:         6       0       0       0       0
  4857 ;;Total ram usage:        6 bytes
  4858 ;; Hardware stack levels used: 1
  4859 ;; Hardware stack levels required when called: 1
  4860 ;; This function calls:
  4861 ;;		Nothing
  4862 ;; This function is called by:
  4863 ;;		_run_program
  4864 ;; This function uses a non-reentrant model
  4865 ;;
  4866                           
  4867     14AE                     ___wmul:	
  4868                           ;psect for function ___wmul
  4869                           
  4870     14AE                     l3221:	
  4871                           ;incstack = 0
  4872                           ; Regs used in ___wmul: [wreg+status,2+status,0]
  4873                           
  4874     14AE  01F6               	clrf	___wmul@product
  4875     14AF  01F7               	clrf	___wmul@product+1
  4876     14B0                     l3223:
  4877     14B0  1C72               	btfss	___wmul@multiplier,0
  4878     14B1  2CB3               	goto	u4111
  4879     14B2  2CB4               	goto	u4110
  4880     14B3                     u4111:
  4881     14B3  2CBA               	goto	l443
  4882     14B4                     u4110:
  4883     14B4                     l3225:
  4884     14B4  0874               	movf	___wmul@multiplicand,w
  4885     14B5  07F6               	addwf	___wmul@product,f
  4886     14B6  1803               	skipnc
  4887     14B7  0AF7               	incf	___wmul@product+1,f
  4888     14B8  0875               	movf	___wmul@multiplicand+1,w
  4889     14B9  07F7               	addwf	___wmul@product+1,f
  4890     14BA                     l443:
  4891     14BA  3001               	movlw	1
  4892     14BB                     u4125:
  4893     14BB  1003               	clrc
  4894     14BC  0DF4               	rlf	___wmul@multiplicand,f
  4895     14BD  0DF5               	rlf	___wmul@multiplicand+1,f
  4896     14BE  3EFF               	addlw	-1
  4897     14BF  1D03               	skipz
  4898     14C0  2CBB               	goto	u4125
  4899     14C1                     l3227:
  4900     14C1  3001               	movlw	1
  4901     14C2                     u4135:
  4902     14C2  1003               	clrc
  4903     14C3  0CF3               	rrf	___wmul@multiplier+1,f
  4904     14C4  0CF2               	rrf	___wmul@multiplier,f
  4905     14C5  3EFF               	addlw	-1
  4906     14C6  1D03               	skipz
  4907     14C7  2CC2               	goto	u4135
  4908     14C8                     l3229:
  4909     14C8  0872               	movf	___wmul@multiplier,w
  4910     14C9  0473               	iorwf	___wmul@multiplier+1,w
  4911     14CA  1D03               	btfss	3,2
  4912     14CB  2CCD               	goto	u4141
  4913     14CC  2CCE               	goto	u4140
  4914     14CD                     u4141:
  4915     14CD  2CB0               	goto	l3223
  4916     14CE                     u4140:
  4917     14CE                     l3231:
  4918     14CE  0877               	movf	___wmul@product+1,w
  4919     14CF  00F3               	movwf	?___wmul+1
  4920     14D0  0876               	movf	___wmul@product,w
  4921     14D1  00F2               	movwf	?___wmul
  4922     14D2                     l445:
  4923     14D2  0008               	return
  4924     14D3                     __end_of___wmul:
  4925                           
  4926                           	psect	text9
  4927     076D                     __ptext9:	
  4928 ;; *************** function ___fltol *****************
  4929 ;; Defined at:
  4930 ;;		line 43 in file "/opt/microchip/xc8/v3.00/pic/sources/c99/common/fltol.c"
  4931 ;; Parameters:    Size  Location     Type
  4932 ;;  f1              4   36[BANK0 ] unsigned int 
  4933 ;; Auto vars:     Size  Location     Type
  4934 ;;  exp1            1    7[COMMON] unsigned char 
  4935 ;;  sign1           1    6[COMMON] unsigned char 
  4936 ;; Return value:  Size  Location     Type
  4937 ;;                  4   36[BANK0 ] long 
  4938 ;; Registers used:
  4939 ;;		wreg, status,2, status,0
  4940 ;; Tracked objects:
  4941 ;;		On entry : 0/0
  4942 ;;		On exit  : 0/0
  4943 ;;		Unchanged: 0/0
  4944 ;; Data sizes:     COMMON   BANK0   BANK1   BANK3   BANK2
  4945 ;;      Params:         0       4       0       0       0
  4946 ;;      Locals:         2       0       0       0       0
  4947 ;;      Temps:          0       4       0       0       0
  4948 ;;      Totals:         2       8       0       0       0
  4949 ;;Total ram usage:       10 bytes
  4950 ;; Hardware stack levels used: 1
  4951 ;; Hardware stack levels required when called: 1
  4952 ;; This function calls:
  4953 ;;		Nothing
  4954 ;; This function is called by:
  4955 ;;		_run_program
  4956 ;; This function uses a non-reentrant model
  4957 ;;
  4958                           
  4959     076D                     ___fltol:	
  4960                           ;psect for function ___fltol
  4961                           
  4962     076D                     l3337:	
  4963                           ;incstack = 0
  4964                           ; Regs used in ___fltol: [wreg+status,2+status,0]
  4965                           
  4966     076D  1003               	clrc
  4967     076E  1283               	bcf	3,5	;RP0=0, select bank0
  4968     076F  1303               	bcf	3,6	;RP1=0, select bank0
  4969     0770  0D46               	rlf	___fltol@f1+2,w
  4970     0771  0D47               	rlf	___fltol@f1+3,w
  4971     0772  00F7               	movwf	___fltol@exp1
  4972     0773  0877               	movf	___fltol@exp1,w
  4973     0774  1D03               	btfss	3,2
  4974     0775  2F77               	goto	u4411
  4975     0776  2F78               	goto	u4410
  4976     0777                     u4411:
  4977     0777  2F81               	goto	l3343
  4978     0778                     u4410:
  4979     0778                     l3339:
  4980     0778  3000               	movlw	0
  4981     0779  00C7               	movwf	?___fltol+3
  4982     077A  3000               	movlw	0
  4983     077B  00C6               	movwf	?___fltol+2
  4984     077C  3000               	movlw	0
  4985     077D  00C5               	movwf	?___fltol+1
  4986     077E  3000               	movlw	0
  4987     077F  00C4               	movwf	?___fltol
  4988     0780  2FE2               	goto	l637
  4989     0781                     l3343:
  4990     0781  0844               	movf	___fltol@f1,w
  4991     0782  00C8               	movwf	??___fltol
  4992     0783  0845               	movf	___fltol@f1+1,w
  4993     0784  00C9               	movwf	??___fltol+1
  4994     0785  0846               	movf	___fltol@f1+2,w
  4995     0786  00CA               	movwf	??___fltol+2
  4996     0787  0847               	movf	___fltol@f1+3,w
  4997     0788  00CB               	movwf	??___fltol+3
  4998     0789  301F               	movlw	31
  4999     078A                     u4425:
  5000     078A  1003               	clrc
  5001     078B  0CCB               	rrf	??___fltol+3,f
  5002     078C  0CCA               	rrf	??___fltol+2,f
  5003     078D  0CC9               	rrf	??___fltol+1,f
  5004     078E  0CC8               	rrf	??___fltol,f
  5005     078F                     u4420:
  5006     078F  3EFF               	addlw	-1
  5007     0790  1D03               	skipz
  5008     0791  2F8A               	goto	u4425
  5009     0792  0848               	movf	??___fltol,w
  5010     0793  00F6               	movwf	___fltol@sign1
  5011     0794                     l3345:
  5012     0794  17C6               	bsf	___fltol@f1+2,7
  5013     0795                     l3347:
  5014     0795  30FF               	movlw	255
  5015     0796  05C4               	andwf	___fltol@f1,f
  5016     0797  30FF               	movlw	255
  5017     0798  05C5               	andwf	___fltol@f1+1,f
  5018     0799  30FF               	movlw	255
  5019     079A  05C6               	andwf	___fltol@f1+2,f
  5020     079B  3000               	movlw	0
  5021     079C  05C7               	andwf	___fltol@f1+3,f
  5022     079D                     l3349:
  5023     079D  3096               	movlw	150
  5024     079E  02F7               	subwf	___fltol@exp1,f
  5025     079F                     l3351:
  5026     079F  1FF7               	btfss	___fltol@exp1,7
  5027     07A0  2FA2               	goto	u4431
  5028     07A1  2FA3               	goto	u4430
  5029     07A2                     u4431:
  5030     07A2  2FBB               	goto	l3361
  5031     07A3                     u4430:
  5032     07A3                     l3353:
  5033     07A3  0877               	movf	___fltol@exp1,w
  5034     07A4  3A80               	xorlw	128
  5035     07A5  3E97               	addlw	151
  5036     07A6  1803               	skipnc
  5037     07A7  2FA9               	goto	u4441
  5038     07A8  2FAA               	goto	u4440
  5039     07A9                     u4441:
  5040     07A9  2FAB               	goto	l3359
  5041     07AA                     u4440:
  5042     07AA  2F78               	goto	l3339
  5043     07AB                     l3359:
  5044     07AB  3001               	movlw	1
  5045     07AC                     u4455:
  5046     07AC  1003               	clrc
  5047     07AD  0CC7               	rrf	___fltol@f1+3,f
  5048     07AE  0CC6               	rrf	___fltol@f1+2,f
  5049     07AF  0CC5               	rrf	___fltol@f1+1,f
  5050     07B0  0CC4               	rrf	___fltol@f1,f
  5051     07B1  3EFF               	addlw	-1
  5052     07B2  1D03               	skipz
  5053     07B3  2FAC               	goto	u4455
  5054     07B4  3001               	movlw	1
  5055     07B5  07F7               	addwf	___fltol@exp1,f
  5056     07B6  1D03               	btfss	3,2
  5057     07B7  2FB9               	goto	u4461
  5058     07B8  2FBA               	goto	u4460
  5059     07B9                     u4461:
  5060     07B9  2FAB               	goto	l3359
  5061     07BA                     u4460:
  5062     07BA  2FD2               	goto	l3369
  5063     07BB                     l3361:
  5064     07BB  3020               	movlw	32
  5065     07BC  0277               	subwf	___fltol@exp1,w
  5066     07BD  1C03               	skipc
  5067     07BE  2FC0               	goto	u4471
  5068     07BF  2FC1               	goto	u4470
  5069     07C0                     u4471:
  5070     07C0  2FCD               	goto	l644
  5071     07C1                     u4470:
  5072     07C1  2F78               	goto	l3339
  5073     07C2                     l3367:
  5074     07C2  3001               	movlw	1
  5075     07C3  00C8               	movwf	??___fltol
  5076     07C4                     u4485:
  5077     07C4  1003               	clrc
  5078     07C5  0DC4               	rlf	___fltol@f1,f
  5079     07C6  0DC5               	rlf	___fltol@f1+1,f
  5080     07C7  0DC6               	rlf	___fltol@f1+2,f
  5081     07C8  0DC7               	rlf	___fltol@f1+3,f
  5082     07C9  0BC8               	decfsz	??___fltol,f
  5083     07CA  2FC4               	goto	u4485
  5084     07CB  3001               	movlw	1
  5085     07CC  02F7               	subwf	___fltol@exp1,f
  5086     07CD                     l644:
  5087     07CD  0877               	movf	___fltol@exp1,w
  5088     07CE  1D03               	btfss	3,2
  5089     07CF  2FD1               	goto	u4491
  5090     07D0  2FD2               	goto	u4490
  5091     07D1                     u4491:
  5092     07D1  2FC2               	goto	l3367
  5093     07D2                     u4490:
  5094     07D2                     l3369:
  5095     07D2  0876               	movf	___fltol@sign1,w
  5096     07D3  1903               	btfsc	3,2
  5097     07D4  2FD6               	goto	u4501
  5098     07D5  2FD7               	goto	u4500
  5099     07D6                     u4501:
  5100     07D6  2FE2               	goto	l647
  5101     07D7                     u4500:
  5102     07D7                     l3371:
  5103     07D7  09C4               	comf	___fltol@f1,f
  5104     07D8  09C5               	comf	___fltol@f1+1,f
  5105     07D9  09C6               	comf	___fltol@f1+2,f
  5106     07DA  09C7               	comf	___fltol@f1+3,f
  5107     07DB  0AC4               	incf	___fltol@f1,f
  5108     07DC  1903               	skipnz
  5109     07DD  0AC5               	incf	___fltol@f1+1,f
  5110     07DE  1903               	skipnz
  5111     07DF  0AC6               	incf	___fltol@f1+2,f
  5112     07E0  1903               	skipnz
  5113     07E1  0AC7               	incf	___fltol@f1+3,f
  5114     07E2                     l647:
  5115     07E2                     l637:
  5116     07E2  0008               	return
  5117     07E3                     __end_of___fltol:
  5118                           
  5119                           	psect	text10
  5120     148A                     __ptext10:	
  5121 ;; *************** function ___flsub *****************
  5122 ;; Defined at:
  5123 ;;		line 242 in file "/opt/microchip/xc8/v3.00/pic/sources/c99/common/sprcadd.c"
  5124 ;; Parameters:    Size  Location     Type
  5125 ;;  a               4   36[BANK0 ] long 
  5126 ;;  b               4   40[BANK0 ] long 
  5127 ;; Auto vars:     Size  Location     Type
  5128 ;;		None
  5129 ;; Return value:  Size  Location     Type
  5130 ;;                  4   36[BANK0 ] long 
  5131 ;; Registers used:
  5132 ;;		wreg, status,2, status,0, btemp+1, pclath, cstack
  5133 ;; Tracked objects:
  5134 ;;		On entry : 0/0
  5135 ;;		On exit  : 0/0
  5136 ;;		Unchanged: 0/0
  5137 ;; Data sizes:     COMMON   BANK0   BANK1   BANK3   BANK2
  5138 ;;      Params:         0       8       0       0       0
  5139 ;;      Locals:         0       0       0       0       0
  5140 ;;      Temps:          0       0       0       0       0
  5141 ;;      Totals:         0       8       0       0       0
  5142 ;;Total ram usage:        8 bytes
  5143 ;; Hardware stack levels used: 1
  5144 ;; Hardware stack levels required when called: 2
  5145 ;; This function calls:
  5146 ;;		___fladd
  5147 ;; This function is called by:
  5148 ;;		_run_program
  5149 ;; This function uses a non-reentrant model
  5150 ;;
  5151                           
  5152     148A                     ___flsub:	
  5153                           ;psect for function ___flsub
  5154                           
  5155     148A                     l3373:	
  5156                           ;incstack = 0
  5157                           ; Regs used in ___flsub: [wreg+status,2+status,0+btemp+1+pclath+cstack]
  5158                           
  5159     148A  3080               	movlw	128
  5160     148B  1283               	bcf	3,5	;RP0=0, select bank0
  5161     148C  1303               	bcf	3,6	;RP1=0, select bank0
  5162     148D  06C7               	xorwf	___flsub@a+3,f
  5163     148E                     l3375:
  5164     148E  084B               	movf	___flsub@b+3,w
  5165     148F  00A3               	movwf	___fladd@b+3
  5166     1490  084A               	movf	___flsub@b+2,w
  5167     1491  00A2               	movwf	___fladd@b+2
  5168     1492  0849               	movf	___flsub@b+1,w
  5169     1493  00A1               	movwf	___fladd@b+1
  5170     1494  0848               	movf	___flsub@b,w
  5171     1495  00A0               	movwf	___fladd@b
  5172     1496  0847               	movf	___flsub@a+3,w
  5173     1497  00A7               	movwf	___fladd@a+3
  5174     1498  0846               	movf	___flsub@a+2,w
  5175     1499  00A6               	movwf	___fladd@a+2
  5176     149A  0845               	movf	___flsub@a+1,w
  5177     149B  00A5               	movwf	___fladd@a+1
  5178     149C  0844               	movf	___flsub@a,w
  5179     149D  00A4               	movwf	___fladd@a
  5180     149E  120A  158A  25A8  160A  118A  	fcall	___fladd
  5181     14A3  1283               	bcf	3,5	;RP0=0, select bank0
  5182     14A4  1303               	bcf	3,6	;RP1=0, select bank0
  5183     14A5  0823               	movf	?___fladd+3,w
  5184     14A6  00C7               	movwf	?___flsub+3
  5185     14A7  0822               	movf	?___fladd+2,w
  5186     14A8  00C6               	movwf	?___flsub+2
  5187     14A9  0821               	movf	?___fladd+1,w
  5188     14AA  00C5               	movwf	?___flsub+1
  5189     14AB  0820               	movf	?___fladd,w
  5190     14AC  00C4               	movwf	?___flsub
  5191     14AD                     l790:
  5192     14AD  0008               	return
  5193     14AE                     __end_of___flsub:
  5194                           
  5195                           	psect	text11
  5196     0DA8                     __ptext11:	
  5197 ;; *************** function ___fladd *****************
  5198 ;; Defined at:
  5199 ;;		line 10 in file "/opt/microchip/xc8/v3.00/pic/sources/c99/common/sprcadd.c"
  5200 ;; Parameters:    Size  Location     Type
  5201 ;;  b               4    0[BANK0 ] long 
  5202 ;;  a               4    4[BANK0 ] long 
  5203 ;; Auto vars:     Size  Location     Type
  5204 ;;  grs             1    5[COMMON] unsigned char 
  5205 ;;  bexp            1    4[COMMON] unsigned char 
  5206 ;;  aexp            1    3[COMMON] unsigned char 
  5207 ;;  signs           1    2[COMMON] unsigned char 
  5208 ;; Return value:  Size  Location     Type
  5209 ;;                  4    0[BANK0 ] unsigned char 
  5210 ;; Registers used:
  5211 ;;		wreg, status,2, status,0, btemp+1
  5212 ;; Tracked objects:
  5213 ;;		On entry : 0/0
  5214 ;;		On exit  : 0/0
  5215 ;;		Unchanged: 0/0
  5216 ;; Data sizes:     COMMON   BANK0   BANK1   BANK3   BANK2
  5217 ;;      Params:         0       8       0       0       0
  5218 ;;      Locals:         4       0       0       0       0
  5219 ;;      Temps:          0       8       0       0       0
  5220 ;;      Totals:         4      16       0       0       0
  5221 ;;Total ram usage:       20 bytes
  5222 ;; Hardware stack levels used: 1
  5223 ;; Hardware stack levels required when called: 1
  5224 ;; This function calls:
  5225 ;;		Nothing
  5226 ;; This function is called by:
  5227 ;;		___flsub
  5228 ;; This function uses a non-reentrant model
  5229 ;;
  5230                           
  5231     0DA8                     ___fladd:	
  5232                           ;psect for function ___fladd
  5233                           
  5234     0DA8                     l2977:	
  5235                           ;incstack = 0
  5236                           ; Regs used in ___fladd: [wreg+status,2+status,0+btemp+1]
  5237                           
  5238     0DA8  1283               	bcf	3,5	;RP0=0, select bank0
  5239     0DA9  1303               	bcf	3,6	;RP1=0, select bank0
  5240     0DAA  0823               	movf	___fladd@b+3,w
  5241     0DAB  00F2               	movwf	___fladd@signs
  5242     0DAC                     l2979:
  5243     0DAC  3080               	movlw	128
  5244     0DAD  05F2               	andwf	___fladd@signs,f
  5245     0DAE                     l2981:
  5246     0DAE  0823               	movf	___fladd@b+3,w
  5247     0DAF  00A8               	movwf	??___fladd
  5248     0DB0  0728               	addwf	??___fladd,w
  5249     0DB1  00F4               	movwf	___fladd@bexp
  5250     0DB2                     l2983:
  5251     0DB2  1FA2               	btfss	___fladd@b+2,7
  5252     0DB3  2DB5               	goto	u3601
  5253     0DB4  2DB6               	goto	u3600
  5254     0DB5                     u3601:
  5255     0DB5  2DB7               	goto	l2987
  5256     0DB6                     u3600:
  5257     0DB6                     l2985:
  5258     0DB6  1474               	bsf	___fladd@bexp,0
  5259     0DB7                     l2987:
  5260     0DB7  0874               	movf	___fladd@bexp,w
  5261     0DB8  1903               	btfsc	3,2
  5262     0DB9  2DBB               	goto	u3611
  5263     0DBA  2DBC               	goto	u3610
  5264     0DBB                     u3611:
  5265     0DBB  2DCC               	goto	l2997
  5266     0DBC                     u3610:
  5267     0DBC                     l2989:
  5268     0DBC  0A74               	incf	___fladd@bexp,w
  5269     0DBD  1D03               	btfss	3,2
  5270     0DBE  2DC0               	goto	u3621
  5271     0DBF  2DC1               	goto	u3620
  5272     0DC0                     u3621:
  5273     0DC0  2DC9               	goto	l2993
  5274     0DC1                     u3620:
  5275     0DC1                     l2991:
  5276     0DC1  3000               	movlw	0
  5277     0DC2  00A3               	movwf	___fladd@b+3
  5278     0DC3  3000               	movlw	0
  5279     0DC4  00A2               	movwf	___fladd@b+2
  5280     0DC5  3000               	movlw	0
  5281     0DC6  00A1               	movwf	___fladd@b+1
  5282     0DC7  3000               	movlw	0
  5283     0DC8  00A0               	movwf	___fladd@b
  5284     0DC9                     l2993:
  5285     0DC9  17A2               	bsf	___fladd@b+2,7
  5286     0DCA                     l2995:
  5287     0DCA  01A3               	clrf	___fladd@b+3
  5288     0DCB  2DD4               	goto	l739
  5289     0DCC                     l2997:
  5290     0DCC  3000               	movlw	0
  5291     0DCD  00A3               	movwf	___fladd@b+3
  5292     0DCE  3000               	movlw	0
  5293     0DCF  00A2               	movwf	___fladd@b+2
  5294     0DD0  3000               	movlw	0
  5295     0DD1  00A1               	movwf	___fladd@b+1
  5296     0DD2  3000               	movlw	0
  5297     0DD3  00A0               	movwf	___fladd@b
  5298     0DD4                     l739:
  5299     0DD4  0827               	movf	___fladd@a+3,w
  5300     0DD5  00F3               	movwf	___fladd@aexp
  5301     0DD6                     l2999:
  5302     0DD6  3080               	movlw	128
  5303     0DD7  05F3               	andwf	___fladd@aexp,f
  5304     0DD8                     l3001:
  5305     0DD8  0873               	movf	___fladd@aexp,w
  5306     0DD9  0672               	xorwf	___fladd@signs,w
  5307     0DDA  1903               	skipnz
  5308     0DDB  2DDD               	goto	u3631
  5309     0DDC  2DDE               	goto	u3630
  5310     0DDD                     u3631:
  5311     0DDD  2DDF               	goto	l3005
  5312     0DDE                     u3630:
  5313     0DDE                     l3003:
  5314     0DDE  1772               	bsf	___fladd@signs,6
  5315     0DDF                     l3005:
  5316     0DDF  0827               	movf	___fladd@a+3,w
  5317     0DE0  00A8               	movwf	??___fladd
  5318     0DE1  0728               	addwf	??___fladd,w
  5319     0DE2  00F3               	movwf	___fladd@aexp
  5320     0DE3                     l3007:
  5321     0DE3  1FA6               	btfss	___fladd@a+2,7
  5322     0DE4  2DE6               	goto	u3641
  5323     0DE5  2DE7               	goto	u3640
  5324     0DE6                     u3641:
  5325     0DE6  2DE8               	goto	l3011
  5326     0DE7                     u3640:
  5327     0DE7                     l3009:
  5328     0DE7  1473               	bsf	___fladd@aexp,0
  5329     0DE8                     l3011:
  5330     0DE8  0873               	movf	___fladd@aexp,w
  5331     0DE9  1903               	btfsc	3,2
  5332     0DEA  2DEC               	goto	u3651
  5333     0DEB  2DED               	goto	u3650
  5334     0DEC                     u3651:
  5335     0DEC  2DFD               	goto	l3021
  5336     0DED                     u3650:
  5337     0DED                     l3013:
  5338     0DED  0A73               	incf	___fladd@aexp,w
  5339     0DEE  1D03               	btfss	3,2
  5340     0DEF  2DF1               	goto	u3661
  5341     0DF0  2DF2               	goto	u3660
  5342     0DF1                     u3661:
  5343     0DF1  2DFA               	goto	l3017
  5344     0DF2                     u3660:
  5345     0DF2                     l3015:
  5346     0DF2  3000               	movlw	0
  5347     0DF3  00A7               	movwf	___fladd@a+3
  5348     0DF4  3000               	movlw	0
  5349     0DF5  00A6               	movwf	___fladd@a+2
  5350     0DF6  3000               	movlw	0
  5351     0DF7  00A5               	movwf	___fladd@a+1
  5352     0DF8  3000               	movlw	0
  5353     0DF9  00A4               	movwf	___fladd@a
  5354     0DFA                     l3017:
  5355     0DFA  17A6               	bsf	___fladd@a+2,7
  5356     0DFB                     l3019:
  5357     0DFB  01A7               	clrf	___fladd@a+3
  5358     0DFC  2E05               	goto	l744
  5359     0DFD                     l3021:
  5360     0DFD  3000               	movlw	0
  5361     0DFE  00A7               	movwf	___fladd@a+3
  5362     0DFF  3000               	movlw	0
  5363     0E00  00A6               	movwf	___fladd@a+2
  5364     0E01  3000               	movlw	0
  5365     0E02  00A5               	movwf	___fladd@a+1
  5366     0E03  3000               	movlw	0
  5367     0E04  00A4               	movwf	___fladd@a
  5368     0E05                     l744:
  5369     0E05  0874               	movf	___fladd@bexp,w
  5370     0E06  0273               	subwf	___fladd@aexp,w
  5371     0E07  1803               	skipnc
  5372     0E08  2E0A               	goto	u3671
  5373     0E09  2E0B               	goto	u3670
  5374     0E0A                     u3671:
  5375     0E0A  2E2F               	goto	l3057
  5376     0E0B                     u3670:
  5377     0E0B                     l3023:
  5378     0E0B  1F72               	btfss	___fladd@signs,6
  5379     0E0C  2E0E               	goto	u3681
  5380     0E0D  2E0F               	goto	u3680
  5381     0E0E                     u3681:
  5382     0E0E  2E11               	goto	l3027
  5383     0E0F                     u3680:
  5384     0E0F                     l3025:
  5385     0E0F  3080               	movlw	128
  5386     0E10  06F2               	xorwf	___fladd@signs,f
  5387     0E11                     l3027:
  5388     0E11  0874               	movf	___fladd@bexp,w
  5389     0E12  00F5               	movwf	___fladd@grs
  5390     0E13                     l3029:
  5391     0E13  0873               	movf	___fladd@aexp,w
  5392     0E14  00F4               	movwf	___fladd@bexp
  5393     0E15                     l3031:
  5394     0E15  0875               	movf	___fladd@grs,w
  5395     0E16  00F3               	movwf	___fladd@aexp
  5396     0E17                     l3033:
  5397     0E17  0820               	movf	___fladd@b,w
  5398     0E18  00F5               	movwf	___fladd@grs
  5399     0E19                     l3035:
  5400     0E19  0824               	movf	___fladd@a,w
  5401     0E1A  00A0               	movwf	___fladd@b
  5402     0E1B                     l3037:
  5403     0E1B  0875               	movf	___fladd@grs,w
  5404     0E1C  00A4               	movwf	___fladd@a
  5405     0E1D                     l3039:
  5406     0E1D  0821               	movf	___fladd@b+1,w
  5407     0E1E  00F5               	movwf	___fladd@grs
  5408     0E1F                     l3041:
  5409     0E1F  0825               	movf	___fladd@a+1,w
  5410     0E20  00A1               	movwf	___fladd@b+1
  5411     0E21                     l3043:
  5412     0E21  0875               	movf	___fladd@grs,w
  5413     0E22  00A5               	movwf	___fladd@a+1
  5414     0E23                     l3045:
  5415     0E23  0822               	movf	___fladd@b+2,w
  5416     0E24  00F5               	movwf	___fladd@grs
  5417     0E25                     l3047:
  5418     0E25  0826               	movf	___fladd@a+2,w
  5419     0E26  00A2               	movwf	___fladd@b+2
  5420     0E27                     l3049:
  5421     0E27  0875               	movf	___fladd@grs,w
  5422     0E28  00A6               	movwf	___fladd@a+2
  5423     0E29                     l3051:
  5424     0E29  0823               	movf	___fladd@b+3,w
  5425     0E2A  00F5               	movwf	___fladd@grs
  5426     0E2B                     l3053:
  5427     0E2B  0827               	movf	___fladd@a+3,w
  5428     0E2C  00A3               	movwf	___fladd@b+3
  5429     0E2D                     l3055:
  5430     0E2D  0875               	movf	___fladd@grs,w
  5431     0E2E  00A7               	movwf	___fladd@a+3
  5432     0E2F                     l3057:
  5433     0E2F  01F5               	clrf	___fladd@grs
  5434     0E30                     l3059:
  5435     0E30  0873               	movf	___fladd@aexp,w
  5436     0E31  00A8               	movwf	??___fladd
  5437     0E32  01A9               	clrf	??___fladd+1
  5438     0E33  0829               	movf	??___fladd+1,w
  5439     0E34  00AB               	movwf	??___fladd+3
  5440     0E35  0874               	movf	___fladd@bexp,w
  5441     0E36  0228               	subwf	??___fladd,w
  5442     0E37  00AA               	movwf	??___fladd+2
  5443     0E38  1C03               	skipc
  5444     0E39  03AB               	decf	??___fladd+3,f
  5445     0E3A  082B               	movf	??___fladd+3,w
  5446     0E3B  3A80               	xorlw	128
  5447     0E3C  00FF               	movwf	btemp+1
  5448     0E3D  3080               	movlw	128
  5449     0E3E  027F               	subwf	btemp+1,w
  5450     0E3F  1D03               	skipz
  5451     0E40  2E43               	goto	u3695
  5452     0E41  301A               	movlw	26
  5453     0E42  022A               	subwf	??___fladd+2,w
  5454     0E43                     u3695:
  5455     0E43  1C03               	skipc
  5456     0E44  2E46               	goto	u3691
  5457     0E45  2E47               	goto	u3690
  5458     0E46                     u3691:
  5459     0E46  2E80               	goto	l3075
  5460     0E47                     u3690:
  5461     0E47                     l3061:
  5462     0E47  1283               	bcf	3,5	;RP0=0, select bank0
  5463     0E48  1303               	bcf	3,6	;RP1=0, select bank0
  5464     0E49  0823               	movf	___fladd@b+3,w
  5465     0E4A  0422               	iorwf	___fladd@b+2,w
  5466     0E4B  0421               	iorwf	___fladd@b+1,w
  5467     0E4C  0420               	iorwf	___fladd@b,w
  5468     0E4D  1D03               	skipz
  5469     0E4E  2E50               	goto	u3701
  5470     0E4F  2E52               	goto	u3700
  5471     0E50                     u3701:
  5472     0E50  3001               	movlw	1
  5473     0E51  2E53               	goto	u3710
  5474     0E52                     u3700:
  5475     0E52  3000               	movlw	0
  5476     0E53                     u3710:
  5477     0E53  00F5               	movwf	___fladd@grs
  5478     0E54  3000               	movlw	0
  5479     0E55  00A3               	movwf	___fladd@b+3
  5480     0E56  3000               	movlw	0
  5481     0E57  00A2               	movwf	___fladd@b+2
  5482     0E58  3000               	movlw	0
  5483     0E59  00A1               	movwf	___fladd@b+1
  5484     0E5A  3000               	movlw	0
  5485     0E5B  00A0               	movwf	___fladd@b
  5486     0E5C  0873               	movf	___fladd@aexp,w
  5487     0E5D  00F4               	movwf	___fladd@bexp
  5488     0E5E  2E86               	goto	l748
  5489     0E5F                     l750:
  5490     0E5F  1C75               	btfss	___fladd@grs,0
  5491     0E60  2E62               	goto	u3721
  5492     0E61  2E63               	goto	u3720
  5493     0E62                     u3721:
  5494     0E62  2E6C               	goto	l3065
  5495     0E63                     u3720:
  5496     0E63                     l3063:
  5497     0E63  0875               	movf	___fladd@grs,w
  5498     0E64  1283               	bcf	3,5	;RP0=0, select bank0
  5499     0E65  1303               	bcf	3,6	;RP1=0, select bank0
  5500     0E66  00A8               	movwf	??___fladd
  5501     0E67  1003               	clrc
  5502     0E68  0C28               	rrf	??___fladd,w
  5503     0E69  3801               	iorlw	1
  5504     0E6A  00F5               	movwf	___fladd@grs
  5505     0E6B  2E6E               	goto	l3067
  5506     0E6C                     l3065:
  5507     0E6C  1003               	clrc
  5508     0E6D  0CF5               	rrf	___fladd@grs,f
  5509     0E6E                     l3067:
  5510     0E6E  1283               	bcf	3,5	;RP0=0, select bank0
  5511     0E6F  1303               	bcf	3,6	;RP1=0, select bank0
  5512     0E70  1C20               	btfss	___fladd@b,0
  5513     0E71  2E73               	goto	u3731
  5514     0E72  2E74               	goto	u3730
  5515     0E73                     u3731:
  5516     0E73  2E75               	goto	l3071
  5517     0E74                     u3730:
  5518     0E74                     l3069:
  5519     0E74  17F5               	bsf	___fladd@grs,7
  5520     0E75                     l3071:
  5521     0E75  3001               	movlw	1
  5522     0E76  00A8               	movwf	??___fladd
  5523     0E77                     u3745:
  5524     0E77  0D23               	rlf	___fladd@b+3,w
  5525     0E78  0CA3               	rrf	___fladd@b+3,f
  5526     0E79  0CA2               	rrf	___fladd@b+2,f
  5527     0E7A  0CA1               	rrf	___fladd@b+1,f
  5528     0E7B  0CA0               	rrf	___fladd@b,f
  5529     0E7C  0BA8               	decfsz	??___fladd& (0+127),f
  5530     0E7D  2E77               	goto	u3745
  5531     0E7E                     l3073:
  5532     0E7E  3001               	movlw	1
  5533     0E7F  07F4               	addwf	___fladd@bexp,f
  5534     0E80                     l3075:
  5535     0E80  0873               	movf	___fladd@aexp,w
  5536     0E81  0274               	subwf	___fladd@bexp,w
  5537     0E82  1C03               	skipc
  5538     0E83  2E85               	goto	u3751
  5539     0E84  2E86               	goto	u3750
  5540     0E85                     u3751:
  5541     0E85  2E5F               	goto	l750
  5542     0E86                     u3750:
  5543     0E86                     l748:
  5544     0E86  1B72               	btfsc	___fladd@signs,6
  5545     0E87  2E89               	goto	u3761
  5546     0E88  2E8A               	goto	u3760
  5547     0E89                     u3761:
  5548     0E89  2ED5               	goto	l3101
  5549     0E8A                     u3760:
  5550     0E8A                     l3077:
  5551     0E8A  0874               	movf	___fladd@bexp,w
  5552     0E8B  1D03               	btfss	3,2
  5553     0E8C  2E8E               	goto	u3771
  5554     0E8D  2E8F               	goto	u3770
  5555     0E8E                     u3771:
  5556     0E8E  2E9A               	goto	l3083
  5557     0E8F                     u3770:
  5558     0E8F                     l3079:
  5559     0E8F  3000               	movlw	0
  5560     0E90  1283               	bcf	3,5	;RP0=0, select bank0
  5561     0E91  1303               	bcf	3,6	;RP1=0, select bank0
  5562     0E92  00A3               	movwf	?___fladd+3
  5563     0E93  3000               	movlw	0
  5564     0E94  00A2               	movwf	?___fladd+2
  5565     0E95  3000               	movlw	0
  5566     0E96  00A1               	movwf	?___fladd+1
  5567     0E97  3000               	movlw	0
  5568     0E98  00A0               	movwf	?___fladd
  5569     0E99  2FFF               	goto	l757
  5570     0E9A                     l3083:
  5571     0E9A  1283               	bcf	3,5	;RP0=0, select bank0
  5572     0E9B  1303               	bcf	3,6	;RP1=0, select bank0
  5573     0E9C  0824               	movf	___fladd@a,w
  5574     0E9D  07A0               	addwf	___fladd@b,f
  5575     0E9E  0825               	movf	___fladd@a+1,w
  5576     0E9F  1103               	clrz
  5577     0EA0  1803               	skipnc
  5578     0EA1  3E01               	addlw	1
  5579     0EA2  1903               	skipnz
  5580     0EA3  2EA5               	goto	u3781
  5581     0EA4  07A1               	addwf	___fladd@b+1,f
  5582     0EA5                     u3781:
  5583     0EA5  0826               	movf	___fladd@a+2,w
  5584     0EA6  1103               	clrz
  5585     0EA7  1803               	skipnc
  5586     0EA8  3E01               	addlw	1
  5587     0EA9  1903               	skipnz
  5588     0EAA  2EAC               	goto	u3782
  5589     0EAB  07A2               	addwf	___fladd@b+2,f
  5590     0EAC                     u3782:
  5591     0EAC  0827               	movf	___fladd@a+3,w
  5592     0EAD  1103               	clrz
  5593     0EAE  1803               	skipnc
  5594     0EAF  3E01               	addlw	1
  5595     0EB0  1903               	skipnz
  5596     0EB1  2EB3               	goto	u3783
  5597     0EB2  07A3               	addwf	___fladd@b+3,f
  5598     0EB3                     u3783:
  5599     0EB3                     l3085:
  5600     0EB3  1C23               	btfss	___fladd@b+3,0
  5601     0EB4  2EB6               	goto	u3791
  5602     0EB5  2EB7               	goto	u3790
  5603     0EB6                     u3791:
  5604     0EB6  2F8B               	goto	l3137
  5605     0EB7                     u3790:
  5606     0EB7                     l3087:
  5607     0EB7  1C75               	btfss	___fladd@grs,0
  5608     0EB8  2EBA               	goto	u3801
  5609     0EB9  2EBB               	goto	u3800
  5610     0EBA                     u3801:
  5611     0EBA  2EC2               	goto	l3091
  5612     0EBB                     u3800:
  5613     0EBB                     l3089:
  5614     0EBB  0875               	movf	___fladd@grs,w
  5615     0EBC  00A8               	movwf	??___fladd
  5616     0EBD  1003               	clrc
  5617     0EBE  0C28               	rrf	??___fladd,w
  5618     0EBF  3801               	iorlw	1
  5619     0EC0  00F5               	movwf	___fladd@grs
  5620     0EC1  2EC4               	goto	l3093
  5621     0EC2                     l3091:
  5622     0EC2  1003               	clrc
  5623     0EC3  0CF5               	rrf	___fladd@grs,f
  5624     0EC4                     l3093:
  5625     0EC4  1C20               	btfss	___fladd@b,0
  5626     0EC5  2EC7               	goto	u3811
  5627     0EC6  2EC8               	goto	u3810
  5628     0EC7                     u3811:
  5629     0EC7  2EC9               	goto	l3097
  5630     0EC8                     u3810:
  5631     0EC8                     l3095:
  5632     0EC8  17F5               	bsf	___fladd@grs,7
  5633     0EC9                     l3097:
  5634     0EC9  3001               	movlw	1
  5635     0ECA  00A8               	movwf	??___fladd
  5636     0ECB                     u3825:
  5637     0ECB  0D23               	rlf	___fladd@b+3,w
  5638     0ECC  0CA3               	rrf	___fladd@b+3,f
  5639     0ECD  0CA2               	rrf	___fladd@b+2,f
  5640     0ECE  0CA1               	rrf	___fladd@b+1,f
  5641     0ECF  0CA0               	rrf	___fladd@b,f
  5642     0ED0  0BA8               	decfsz	??___fladd& (0+127),f
  5643     0ED1  2ECB               	goto	u3825
  5644     0ED2                     l3099:
  5645     0ED2  3001               	movlw	1
  5646     0ED3  07F4               	addwf	___fladd@bexp,f
  5647     0ED4  2F8B               	goto	l3137
  5648     0ED5                     l3101:
  5649     0ED5  1283               	bcf	3,5	;RP0=0, select bank0
  5650     0ED6  1303               	bcf	3,6	;RP1=0, select bank0
  5651     0ED7  0823               	movf	___fladd@b+3,w
  5652     0ED8  3A80               	xorlw	128
  5653     0ED9  00FF               	movwf	btemp+1
  5654     0EDA  0827               	movf	___fladd@a+3,w
  5655     0EDB  3A80               	xorlw	128
  5656     0EDC  027F               	subwf	btemp+1,w
  5657     0EDD  1D03               	skipz
  5658     0EDE  2EE9               	goto	u3833
  5659     0EDF  0826               	movf	___fladd@a+2,w
  5660     0EE0  0222               	subwf	___fladd@b+2,w
  5661     0EE1  1D03               	skipz
  5662     0EE2  2EE9               	goto	u3833
  5663     0EE3  0825               	movf	___fladd@a+1,w
  5664     0EE4  0221               	subwf	___fladd@b+1,w
  5665     0EE5  1D03               	skipz
  5666     0EE6  2EE9               	goto	u3833
  5667     0EE7  0824               	movf	___fladd@a,w
  5668     0EE8  0220               	subwf	___fladd@b,w
  5669     0EE9                     u3833:
  5670     0EE9  1803               	skipnc
  5671     0EEA  2EEC               	goto	u3831
  5672     0EEB  2EED               	goto	u3830
  5673     0EEC                     u3831:
  5674     0EEC  2F44               	goto	l3113
  5675     0EED                     u3830:
  5676     0EED                     l3103:
  5677     0EED  30FF               	movlw	255
  5678     0EEE  00A8               	movwf	??___fladd
  5679     0EEF  30FF               	movlw	255
  5680     0EF0  00A9               	movwf	??___fladd+1
  5681     0EF1  30FF               	movlw	255
  5682     0EF2  00AA               	movwf	??___fladd+2
  5683     0EF3  30FF               	movlw	255
  5684     0EF4  00AB               	movwf	??___fladd+3
  5685     0EF5  0824               	movf	___fladd@a,w
  5686     0EF6  00AC               	movwf	??___fladd+4
  5687     0EF7  0825               	movf	___fladd@a+1,w
  5688     0EF8  00AD               	movwf	??___fladd+5
  5689     0EF9  0826               	movf	___fladd@a+2,w
  5690     0EFA  00AE               	movwf	??___fladd+6
  5691     0EFB  0827               	movf	___fladd@a+3,w
  5692     0EFC  00AF               	movwf	??___fladd+7
  5693     0EFD  0820               	movf	___fladd@b,w
  5694     0EFE  02AC               	subwf	??___fladd+4,f
  5695     0EFF  0821               	movf	___fladd@b+1,w
  5696     0F00  1C03               	skipc
  5697     0F01  0F21               	incfsz	___fladd@b+1,w
  5698     0F02  2F04               	goto	u3841
  5699     0F03  2F05               	goto	u3842
  5700     0F04                     u3841:
  5701     0F04  02AD               	subwf	??___fladd+5,f
  5702     0F05                     u3842:
  5703     0F05  0822               	movf	___fladd@b+2,w
  5704     0F06  1C03               	skipc
  5705     0F07  0F22               	incfsz	___fladd@b+2,w
  5706     0F08  2F0A               	goto	u3843
  5707     0F09  2F0B               	goto	u3844
  5708     0F0A                     u3843:
  5709     0F0A  02AE               	subwf	??___fladd+6,f
  5710     0F0B                     u3844:
  5711     0F0B  0823               	movf	___fladd@b+3,w
  5712     0F0C  1C03               	skipc
  5713     0F0D  0F23               	incfsz	___fladd@b+3,w
  5714     0F0E  2F10               	goto	u3845
  5715     0F0F  2F11               	goto	u3846
  5716     0F10                     u3845:
  5717     0F10  02AF               	subwf	??___fladd+7,f
  5718     0F11                     u3846:
  5719     0F11  082C               	movf	??___fladd+4,w
  5720     0F12  07A8               	addwf	??___fladd,f
  5721     0F13  082D               	movf	??___fladd+5,w
  5722     0F14  1803               	skipnc
  5723     0F15  0F2D               	incfsz	??___fladd+5,w
  5724     0F16  2F18               	goto	u3850
  5725     0F17  2F19               	goto	u3851
  5726     0F18                     u3850:
  5727     0F18  07A9               	addwf	??___fladd+1,f
  5728     0F19                     u3851:
  5729     0F19  082E               	movf	??___fladd+6,w
  5730     0F1A  1803               	skipnc
  5731     0F1B  0F2E               	incfsz	??___fladd+6,w
  5732     0F1C  2F1E               	goto	u3852
  5733     0F1D  2F1F               	goto	u3853
  5734     0F1E                     u3852:
  5735     0F1E  07AA               	addwf	??___fladd+2,f
  5736     0F1F                     u3853:
  5737     0F1F  082F               	movf	??___fladd+7,w
  5738     0F20  1803               	skipnc
  5739     0F21  0A2F               	incf	??___fladd+7,w
  5740     0F22  07AB               	addwf	??___fladd+3,f
  5741     0F23  082B               	movf	??___fladd+3,w
  5742     0F24  00A3               	movwf	___fladd@b+3
  5743     0F25  082A               	movf	??___fladd+2,w
  5744     0F26  00A2               	movwf	___fladd@b+2
  5745     0F27  0829               	movf	??___fladd+1,w
  5746     0F28  00A1               	movwf	___fladd@b+1
  5747     0F29  0828               	movf	??___fladd,w
  5748     0F2A  00A0               	movwf	___fladd@b
  5749     0F2B                     l3105:
  5750     0F2B  3080               	movlw	128
  5751     0F2C  06F2               	xorwf	___fladd@signs,f
  5752     0F2D                     l3107:
  5753     0F2D  0375               	decf	___fladd@grs,w
  5754     0F2E  3AFF               	xorlw	255
  5755     0F2F  00F5               	movwf	___fladd@grs
  5756     0F30                     l3109:
  5757     0F30  0875               	movf	___fladd@grs,w
  5758     0F31  1D03               	btfss	3,2
  5759     0F32  2F34               	goto	u3861
  5760     0F33  2F35               	goto	u3860
  5761     0F34                     u3861:
  5762     0F34  2F52               	goto	l765
  5763     0F35                     u3860:
  5764     0F35                     l3111:
  5765     0F35  3001               	movlw	1
  5766     0F36  07A0               	addwf	___fladd@b,f
  5767     0F37  3000               	movlw	0
  5768     0F38  1803               	skipnc
  5769     0F39  3001               	movlw	1
  5770     0F3A  07A1               	addwf	___fladd@b+1,f
  5771     0F3B  3000               	movlw	0
  5772     0F3C  1803               	skipnc
  5773     0F3D  3001               	movlw	1
  5774     0F3E  07A2               	addwf	___fladd@b+2,f
  5775     0F3F  3000               	movlw	0
  5776     0F40  1803               	skipnc
  5777     0F41  3001               	movlw	1
  5778     0F42  07A3               	addwf	___fladd@b+3,f
  5779     0F43  2F52               	goto	l765
  5780     0F44                     l3113:
  5781     0F44  0824               	movf	___fladd@a,w
  5782     0F45  02A0               	subwf	___fladd@b,f
  5783     0F46  0825               	movf	___fladd@a+1,w
  5784     0F47  1C03               	skipc
  5785     0F48  0F25               	incfsz	___fladd@a+1,w
  5786     0F49  02A1               	subwf	___fladd@b+1,f
  5787     0F4A  0826               	movf	___fladd@a+2,w
  5788     0F4B  1C03               	skipc
  5789     0F4C  0F26               	incfsz	___fladd@a+2,w
  5790     0F4D  02A2               	subwf	___fladd@b+2,f
  5791     0F4E  0827               	movf	___fladd@a+3,w
  5792     0F4F  1C03               	skipc
  5793     0F50  0F27               	incfsz	___fladd@a+3,w
  5794     0F51  02A3               	subwf	___fladd@b+3,f
  5795     0F52                     l765:
  5796     0F52  0823               	movf	___fladd@b+3,w
  5797     0F53  0422               	iorwf	___fladd@b+2,w
  5798     0F54  0421               	iorwf	___fladd@b+1,w
  5799     0F55  0420               	iorwf	___fladd@b,w
  5800     0F56  1D03               	skipz
  5801     0F57  2F59               	goto	u3871
  5802     0F58  2F5A               	goto	u3870
  5803     0F59                     u3871:
  5804     0F59  2F87               	goto	l3135
  5805     0F5A                     u3870:
  5806     0F5A                     l3115:
  5807     0F5A  0875               	movf	___fladd@grs,w
  5808     0F5B  1D03               	btfss	3,2
  5809     0F5C  2F5E               	goto	u3881
  5810     0F5D  2F5F               	goto	u3880
  5811     0F5E                     u3881:
  5812     0F5E  2F87               	goto	l3135
  5813     0F5F                     u3880:
  5814     0F5F                     l3117:
  5815     0F5F  3000               	movlw	0
  5816     0F60  00A3               	movwf	?___fladd+3
  5817     0F61  3000               	movlw	0
  5818     0F62  00A2               	movwf	?___fladd+2
  5819     0F63  3000               	movlw	0
  5820     0F64  00A1               	movwf	?___fladd+1
  5821     0F65  3000               	movlw	0
  5822     0F66  00A0               	movwf	?___fladd
  5823     0F67  2FFF               	goto	l757
  5824     0F68                     l3121:
  5825     0F68  3001               	movlw	1
  5826     0F69  00A8               	movwf	??___fladd
  5827     0F6A                     u3895:
  5828     0F6A  1003               	clrc
  5829     0F6B  0DA0               	rlf	___fladd@b,f
  5830     0F6C  0DA1               	rlf	___fladd@b+1,f
  5831     0F6D  0DA2               	rlf	___fladd@b+2,f
  5832     0F6E  0DA3               	rlf	___fladd@b+3,f
  5833     0F6F  0BA8               	decfsz	??___fladd,f
  5834     0F70  2F6A               	goto	u3895
  5835     0F71                     l3123:
  5836     0F71  1FF5               	btfss	___fladd@grs,7
  5837     0F72  2F74               	goto	u3901
  5838     0F73  2F75               	goto	u3900
  5839     0F74                     u3901:
  5840     0F74  2F76               	goto	l769
  5841     0F75                     u3900:
  5842     0F75                     l3125:
  5843     0F75  1420               	bsf	___fladd@b,0
  5844     0F76                     l769:
  5845     0F76  1C75               	btfss	___fladd@grs,0
  5846     0F77  2F79               	goto	u3911
  5847     0F78  2F7A               	goto	u3910
  5848     0F79                     u3911:
  5849     0F79  2F7E               	goto	l3129
  5850     0F7A                     u3910:
  5851     0F7A                     l3127:
  5852     0F7A  1403               	setc
  5853     0F7B  0D75               	rlf	___fladd@grs,w
  5854     0F7C  00F5               	movwf	___fladd@grs
  5855     0F7D  2F80               	goto	l3131
  5856     0F7E                     l3129:
  5857     0F7E  1003               	clrc
  5858     0F7F  0DF5               	rlf	___fladd@grs,f
  5859     0F80                     l3131:
  5860     0F80  0874               	movf	___fladd@bexp,w
  5861     0F81  1903               	btfsc	3,2
  5862     0F82  2F84               	goto	u3921
  5863     0F83  2F85               	goto	u3920
  5864     0F84                     u3921:
  5865     0F84  2F87               	goto	l3135
  5866     0F85                     u3920:
  5867     0F85                     l3133:
  5868     0F85  3001               	movlw	1
  5869     0F86  02F4               	subwf	___fladd@bexp,f
  5870     0F87                     l3135:
  5871     0F87  1FA2               	btfss	___fladd@b+2,7
  5872     0F88  2F8A               	goto	u3931
  5873     0F89  2F8B               	goto	u3930
  5874     0F8A                     u3931:
  5875     0F8A  2F68               	goto	l3121
  5876     0F8B                     u3930:
  5877     0F8B                     l3137:
  5878     0F8B  01F3               	clrf	___fladd@aexp
  5879     0F8C                     l3139:
  5880     0F8C  1FF5               	btfss	___fladd@grs,7
  5881     0F8D  2F8F               	goto	u3941
  5882     0F8E  2F90               	goto	u3940
  5883     0F8F                     u3941:
  5884     0F8F  2F9E               	goto	l3147
  5885     0F90                     u3940:
  5886     0F90                     l3141:
  5887     0F90  0875               	movf	___fladd@grs,w
  5888     0F91  397F               	andlw	127
  5889     0F92  1903               	btfsc	3,2
  5890     0F93  2F95               	goto	u3951
  5891     0F94  2F96               	goto	u3950
  5892     0F95                     u3951:
  5893     0F95  2F99               	goto	l775
  5894     0F96                     u3950:
  5895     0F96                     l3143:
  5896     0F96  3001               	movlw	1
  5897     0F97  00F3               	movwf	___fladd@aexp
  5898     0F98  2F9E               	goto	l3147
  5899     0F99                     l775:
  5900     0F99  1C20               	btfss	___fladd@b,0
  5901     0F9A  2F9C               	goto	u3961
  5902     0F9B  2F9D               	goto	u3960
  5903     0F9C                     u3961:
  5904     0F9C  2F9E               	goto	l3147
  5905     0F9D                     u3960:
  5906     0F9D  2F96               	goto	l3143
  5907     0F9E                     l3147:
  5908     0F9E  0873               	movf	___fladd@aexp,w
  5909     0F9F  1903               	btfsc	3,2
  5910     0FA0  2FA2               	goto	u3971
  5911     0FA1  2FA3               	goto	u3970
  5912     0FA2                     u3971:
  5913     0FA2  2FD5               	goto	l778
  5914     0FA3                     u3970:
  5915     0FA3                     l3149:
  5916     0FA3  3001               	movlw	1
  5917     0FA4  07A0               	addwf	___fladd@b,f
  5918     0FA5  3000               	movlw	0
  5919     0FA6  1803               	skipnc
  5920     0FA7  3001               	movlw	1
  5921     0FA8  07A1               	addwf	___fladd@b+1,f
  5922     0FA9  3000               	movlw	0
  5923     0FAA  1803               	skipnc
  5924     0FAB  3001               	movlw	1
  5925     0FAC  07A2               	addwf	___fladd@b+2,f
  5926     0FAD  3000               	movlw	0
  5927     0FAE  1803               	skipnc
  5928     0FAF  3001               	movlw	1
  5929     0FB0  07A3               	addwf	___fladd@b+3,f
  5930     0FB1                     l3151:
  5931     0FB1  1C23               	btfss	___fladd@b+3,0
  5932     0FB2  2FB4               	goto	u3981
  5933     0FB3  2FB5               	goto	u3980
  5934     0FB4                     u3981:
  5935     0FB4  2FD5               	goto	l778
  5936     0FB5                     u3980:
  5937     0FB5                     l3153:
  5938     0FB5  0820               	movf	___fladd@b,w
  5939     0FB6  00A8               	movwf	??___fladd
  5940     0FB7  0821               	movf	___fladd@b+1,w
  5941     0FB8  00A9               	movwf	??___fladd+1
  5942     0FB9  0822               	movf	___fladd@b+2,w
  5943     0FBA  00AA               	movwf	??___fladd+2
  5944     0FBB  0823               	movf	___fladd@b+3,w
  5945     0FBC  00AB               	movwf	??___fladd+3
  5946     0FBD  3001               	movlw	1
  5947     0FBE  00AC               	movwf	??___fladd+4
  5948     0FBF                     u3995:
  5949     0FBF  0D2B               	rlf	??___fladd+3,w
  5950     0FC0  0CAB               	rrf	??___fladd+3,f
  5951     0FC1  0CAA               	rrf	??___fladd+2,f
  5952     0FC2  0CA9               	rrf	??___fladd+1,f
  5953     0FC3  0CA8               	rrf	??___fladd,f
  5954     0FC4                     u3990:
  5955     0FC4  0BAC               	decfsz	??___fladd+4,f
  5956     0FC5  2FBF               	goto	u3995
  5957     0FC6  082B               	movf	??___fladd+3,w
  5958     0FC7  00A3               	movwf	___fladd@b+3
  5959     0FC8  082A               	movf	??___fladd+2,w
  5960     0FC9  00A2               	movwf	___fladd@b+2
  5961     0FCA  0829               	movf	??___fladd+1,w
  5962     0FCB  00A1               	movwf	___fladd@b+1
  5963     0FCC  0828               	movf	??___fladd,w
  5964     0FCD  00A0               	movwf	___fladd@b
  5965     0FCE  0A74               	incf	___fladd@bexp,w
  5966     0FCF  1903               	btfsc	3,2
  5967     0FD0  2FD2               	goto	u4001
  5968     0FD1  2FD3               	goto	u4000
  5969     0FD2                     u4001:
  5970     0FD2  2FD5               	goto	l778
  5971     0FD3                     u4000:
  5972     0FD3                     l3155:
  5973     0FD3  3001               	movlw	1
  5974     0FD4  07F4               	addwf	___fladd@bexp,f
  5975     0FD5                     l778:
  5976     0FD5  0A74               	incf	___fladd@bexp,w
  5977     0FD6  1903               	btfsc	3,2
  5978     0FD7  2FD9               	goto	u4011
  5979     0FD8  2FDA               	goto	u4010
  5980     0FD9                     u4011:
  5981     0FD9  2FDF               	goto	l3159
  5982     0FDA                     u4010:
  5983     0FDA                     l3157:
  5984     0FDA  0874               	movf	___fladd@bexp,w
  5985     0FDB  1D03               	btfss	3,2
  5986     0FDC  2FDE               	goto	u4021
  5987     0FDD  2FDF               	goto	u4020
  5988     0FDE                     u4021:
  5989     0FDE  2FED               	goto	l3165
  5990     0FDF                     u4020:
  5991     0FDF                     l3159:
  5992     0FDF  3000               	movlw	0
  5993     0FE0  00A3               	movwf	___fladd@b+3
  5994     0FE1  3000               	movlw	0
  5995     0FE2  00A2               	movwf	___fladd@b+2
  5996     0FE3  3000               	movlw	0
  5997     0FE4  00A1               	movwf	___fladd@b+1
  5998     0FE5  3000               	movlw	0
  5999     0FE6  00A0               	movwf	___fladd@b
  6000     0FE7                     l3161:
  6001     0FE7  0874               	movf	___fladd@bexp,w
  6002     0FE8  1D03               	btfss	3,2
  6003     0FE9  2FEB               	goto	u4031
  6004     0FEA  2FEC               	goto	u4030
  6005     0FEB                     u4031:
  6006     0FEB  2FED               	goto	l3165
  6007     0FEC                     u4030:
  6008     0FEC                     l3163:
  6009     0FEC  01F2               	clrf	___fladd@signs
  6010     0FED                     l3165:
  6011     0FED  1C74               	btfss	___fladd@bexp,0
  6012     0FEE  2FF0               	goto	u4041
  6013     0FEF  2FF1               	goto	u4040
  6014     0FF0                     u4041:
  6015     0FF0  2FF3               	goto	l3169
  6016     0FF1                     u4040:
  6017     0FF1                     l3167:
  6018     0FF1  17A2               	bsf	___fladd@b+2,7
  6019     0FF2  2FF5               	goto	l786
  6020     0FF3                     l3169:
  6021     0FF3  307F               	movlw	127
  6022     0FF4  05A2               	andwf	___fladd@b+2,f
  6023     0FF5                     l786:
  6024     0FF5  0874               	movf	___fladd@bexp,w
  6025     0FF6  00A8               	movwf	??___fladd
  6026     0FF7  1003               	clrc
  6027     0FF8  0C28               	rrf	??___fladd,w
  6028     0FF9  00A3               	movwf	___fladd@b+3
  6029     0FFA                     l3171:
  6030     0FFA  1FF2               	btfss	___fladd@signs,7
  6031     0FFB  2FFD               	goto	u4051
  6032     0FFC  2FFE               	goto	u4050
  6033     0FFD                     u4051:
  6034     0FFD  2FFF               	goto	l787
  6035     0FFE                     u4050:
  6036     0FFE                     l3173:
  6037     0FFE  17A3               	bsf	___fladd@b+3,7
  6038     0FFF                     l787:
  6039     0FFF                     l757:
  6040     0FFF  0008               	return
  6041     1000                     __end_of___fladd:
  6042                           
  6043                           	psect	text12
  6044     042B                     __ptext12:	
  6045 ;; *************** function ___flmul *****************
  6046 ;; Defined at:
  6047 ;;		line 8 in file "/opt/microchip/xc8/v3.00/pic/sources/c99/common/sprcmul.c"
  6048 ;; Parameters:    Size  Location     Type
  6049 ;;  b               4   10[BANK0 ] unsigned char 
  6050 ;;  a               4   14[BANK0 ] unsigned char 
  6051 ;; Auto vars:     Size  Location     Type
  6052 ;;  prod            4   30[BANK0 ] struct .
  6053 ;;  grs             4   25[BANK0 ] unsigned long 
  6054 ;;  temp            2   34[BANK0 ] struct .
  6055 ;;  bexp            1   29[BANK0 ] unsigned char 
  6056 ;;  aexp            1   24[BANK0 ] unsigned char 
  6057 ;;  sign            1   23[BANK0 ] unsigned char 
  6058 ;; Return value:  Size  Location     Type
  6059 ;;                  4   10[BANK0 ] unsigned char 
  6060 ;; Registers used:
  6061 ;;		wreg, status,2, status,0, btemp+1, pclath, cstack
  6062 ;; Tracked objects:
  6063 ;;		On entry : 0/0
  6064 ;;		On exit  : 0/0
  6065 ;;		Unchanged: 0/0
  6066 ;; Data sizes:     COMMON   BANK0   BANK1   BANK3   BANK2
  6067 ;;      Params:         0       8       0       0       0
  6068 ;;      Locals:         0      13       0       0       0
  6069 ;;      Temps:          0       5       0       0       0
  6070 ;;      Totals:         0      26       0       0       0
  6071 ;;Total ram usage:       26 bytes
  6072 ;; Hardware stack levels used: 1
  6073 ;; Hardware stack levels required when called: 2
  6074 ;; This function calls:
  6075 ;;		__Umul8_16
  6076 ;; This function is called by:
  6077 ;;		_run_program
  6078 ;; This function uses a non-reentrant model
  6079 ;;
  6080                           
  6081     042B                     ___flmul:	
  6082                           ;psect for function ___flmul
  6083                           
  6084     042B                     l3379:	
  6085                           ;incstack = 0
  6086                           ; Regs used in ___flmul: [wreg+status,2+status,0+btemp+1+pclath+cstack]
  6087                           
  6088     042B  1283               	bcf	3,5	;RP0=0, select bank0
  6089     042C  1303               	bcf	3,6	;RP1=0, select bank0
  6090     042D  082D               	movf	___flmul@b+3,w
  6091     042E  00B7               	movwf	___flmul@sign
  6092     042F                     l3381:
  6093     042F  3080               	movlw	128
  6094     0430  05B7               	andwf	___flmul@sign,f
  6095     0431                     l3383:
  6096     0431  082D               	movf	___flmul@b+3,w
  6097     0432  00B2               	movwf	??___flmul
  6098     0433  0732               	addwf	??___flmul,w
  6099     0434  00BD               	movwf	___flmul@bexp
  6100     0435                     l3385:
  6101     0435  1FAC               	btfss	___flmul@b+2,7
  6102     0436  2C38               	goto	u4511
  6103     0437  2C39               	goto	u4510
  6104     0438                     u4511:
  6105     0438  2C3A               	goto	l3389
  6106     0439                     u4510:
  6107     0439                     l3387:
  6108     0439  143D               	bsf	___flmul@bexp,0
  6109     043A                     l3389:
  6110     043A  083D               	movf	___flmul@bexp,w
  6111     043B  1903               	btfsc	3,2
  6112     043C  2C3E               	goto	u4521
  6113     043D  2C3F               	goto	u4520
  6114     043E                     u4521:
  6115     043E  2C4E               	goto	l3397
  6116     043F                     u4520:
  6117     043F                     l3391:
  6118     043F  0A3D               	incf	___flmul@bexp,w
  6119     0440  1D03               	btfss	3,2
  6120     0441  2C43               	goto	u4531
  6121     0442  2C44               	goto	u4530
  6122     0443                     u4531:
  6123     0443  2C4C               	goto	l3395
  6124     0444                     u4530:
  6125     0444                     l3393:
  6126     0444  3000               	movlw	0
  6127     0445  00AD               	movwf	___flmul@b+3
  6128     0446  3000               	movlw	0
  6129     0447  00AC               	movwf	___flmul@b+2
  6130     0448  3000               	movlw	0
  6131     0449  00AB               	movwf	___flmul@b+1
  6132     044A  3000               	movlw	0
  6133     044B  00AA               	movwf	___flmul@b
  6134     044C                     l3395:
  6135     044C  17AC               	bsf	___flmul@b+2,7
  6136     044D  2C56               	goto	l3399
  6137     044E                     l3397:
  6138     044E  3000               	movlw	0
  6139     044F  00AD               	movwf	___flmul@b+3
  6140     0450  3000               	movlw	0
  6141     0451  00AC               	movwf	___flmul@b+2
  6142     0452  3000               	movlw	0
  6143     0453  00AB               	movwf	___flmul@b+1
  6144     0454  3000               	movlw	0
  6145     0455  00AA               	movwf	___flmul@b
  6146     0456                     l3399:
  6147     0456  0831               	movf	___flmul@a+3,w
  6148     0457  3980               	andlw	128
  6149     0458  06B7               	xorwf	___flmul@sign,f
  6150     0459                     l3401:
  6151     0459  0831               	movf	___flmul@a+3,w
  6152     045A  00B2               	movwf	??___flmul
  6153     045B  0732               	addwf	??___flmul,w
  6154     045C  00B8               	movwf	___flmul@aexp
  6155     045D                     l3403:
  6156     045D  1FB0               	btfss	___flmul@a+2,7
  6157     045E  2C60               	goto	u4541
  6158     045F  2C61               	goto	u4540
  6159     0460                     u4541:
  6160     0460  2C62               	goto	l3407
  6161     0461                     u4540:
  6162     0461                     l3405:
  6163     0461  1438               	bsf	___flmul@aexp,0
  6164     0462                     l3407:
  6165     0462  0838               	movf	___flmul@aexp,w
  6166     0463  1903               	btfsc	3,2
  6167     0464  2C66               	goto	u4551
  6168     0465  2C67               	goto	u4550
  6169     0466                     u4551:
  6170     0466  2C76               	goto	l3415
  6171     0467                     u4550:
  6172     0467                     l3409:
  6173     0467  0A38               	incf	___flmul@aexp,w
  6174     0468  1D03               	btfss	3,2
  6175     0469  2C6B               	goto	u4561
  6176     046A  2C6C               	goto	u4560
  6177     046B                     u4561:
  6178     046B  2C74               	goto	l3413
  6179     046C                     u4560:
  6180     046C                     l3411:
  6181     046C  3000               	movlw	0
  6182     046D  00B1               	movwf	___flmul@a+3
  6183     046E  3000               	movlw	0
  6184     046F  00B0               	movwf	___flmul@a+2
  6185     0470  3000               	movlw	0
  6186     0471  00AF               	movwf	___flmul@a+1
  6187     0472  3000               	movlw	0
  6188     0473  00AE               	movwf	___flmul@a
  6189     0474                     l3413:
  6190     0474  17B0               	bsf	___flmul@a+2,7
  6191     0475  2C7E               	goto	l3417
  6192     0476                     l3415:
  6193     0476  3000               	movlw	0
  6194     0477  00B1               	movwf	___flmul@a+3
  6195     0478  3000               	movlw	0
  6196     0479  00B0               	movwf	___flmul@a+2
  6197     047A  3000               	movlw	0
  6198     047B  00AF               	movwf	___flmul@a+1
  6199     047C  3000               	movlw	0
  6200     047D  00AE               	movwf	___flmul@a
  6201     047E                     l3417:
  6202     047E  0838               	movf	___flmul@aexp,w
  6203     047F  1903               	btfsc	3,2
  6204     0480  2C82               	goto	u4571
  6205     0481  2C83               	goto	u4570
  6206     0482                     u4571:
  6207     0482  2C88               	goto	l3421
  6208     0483                     u4570:
  6209     0483                     l3419:
  6210     0483  083D               	movf	___flmul@bexp,w
  6211     0484  1D03               	btfss	3,2
  6212     0485  2C87               	goto	u4581
  6213     0486  2C88               	goto	u4580
  6214     0487                     u4581:
  6215     0487  2C91               	goto	l3425
  6216     0488                     u4580:
  6217     0488                     l3421:
  6218     0488  3000               	movlw	0
  6219     0489  00AD               	movwf	?___flmul+3
  6220     048A  3000               	movlw	0
  6221     048B  00AC               	movwf	?___flmul+2
  6222     048C  3000               	movlw	0
  6223     048D  00AB               	movwf	?___flmul+1
  6224     048E  3000               	movlw	0
  6225     048F  00AA               	movwf	?___flmul
  6226     0490  2F6C               	goto	l840
  6227     0491                     l3425:
  6228     0491  082A               	movf	___flmul@b,w
  6229     0492  00F2               	movwf	__Umul8_16@multiplicand
  6230     0493  0830               	movf	___flmul@a+2,w
  6231     0494  160A  118A  24FC  120A  118A  	fcall	__Umul8_16
  6232     0499  0873               	movf	?__Umul8_16+1,w
  6233     049A  1283               	bcf	3,5	;RP0=0, select bank0
  6234     049B  1303               	bcf	3,6	;RP1=0, select bank0
  6235     049C  00C3               	movwf	___flmul@temp+1
  6236     049D  0872               	movf	?__Umul8_16,w
  6237     049E  00C2               	movwf	___flmul@temp
  6238     049F                     l3427:
  6239     049F  0842               	movf	___flmul@temp,w
  6240     04A0  00B2               	movwf	??___flmul
  6241     04A1  01B3               	clrf	??___flmul+1
  6242     04A2  01B4               	clrf	??___flmul+2
  6243     04A3  01B5               	clrf	??___flmul+3
  6244     04A4  0835               	movf	??___flmul+3,w
  6245     04A5  00BC               	movwf	___flmul@grs+3
  6246     04A6  0834               	movf	??___flmul+2,w
  6247     04A7  00BB               	movwf	___flmul@grs+2
  6248     04A8  0833               	movf	??___flmul+1,w
  6249     04A9  00BA               	movwf	___flmul@grs+1
  6250     04AA  0832               	movf	??___flmul,w
  6251     04AB  00B9               	movwf	___flmul@grs
  6252     04AC                     l3429:
  6253     04AC  0843               	movf	___flmul@temp+1,w
  6254     04AD  00B2               	movwf	??___flmul
  6255     04AE  01B3               	clrf	??___flmul+1
  6256     04AF  01B4               	clrf	??___flmul+2
  6257     04B0  01B5               	clrf	??___flmul+3
  6258     04B1  0835               	movf	??___flmul+3,w
  6259     04B2  00C1               	movwf	___flmul@prod+3
  6260     04B3  0834               	movf	??___flmul+2,w
  6261     04B4  00C0               	movwf	___flmul@prod+2
  6262     04B5  0833               	movf	??___flmul+1,w
  6263     04B6  00BF               	movwf	___flmul@prod+1
  6264     04B7  0832               	movf	??___flmul,w
  6265     04B8  00BE               	movwf	___flmul@prod
  6266     04B9  082B               	movf	___flmul@b+1,w
  6267     04BA  00F2               	movwf	__Umul8_16@multiplicand
  6268     04BB  082F               	movf	___flmul@a+1,w
  6269     04BC  160A  118A  24FC  120A  118A  	fcall	__Umul8_16
  6270     04C1  0873               	movf	?__Umul8_16+1,w
  6271     04C2  1283               	bcf	3,5	;RP0=0, select bank0
  6272     04C3  1303               	bcf	3,6	;RP1=0, select bank0
  6273     04C4  00C3               	movwf	___flmul@temp+1
  6274     04C5  0872               	movf	?__Umul8_16,w
  6275     04C6  00C2               	movwf	___flmul@temp
  6276     04C7                     l3431:
  6277     04C7  0842               	movf	___flmul@temp,w
  6278     04C8  00B2               	movwf	??___flmul
  6279     04C9  01B3               	clrf	??___flmul+1
  6280     04CA  01B4               	clrf	??___flmul+2
  6281     04CB  01B5               	clrf	??___flmul+3
  6282     04CC  0832               	movf	??___flmul,w
  6283     04CD  07B9               	addwf	___flmul@grs,f
  6284     04CE  0833               	movf	??___flmul+1,w
  6285     04CF  1103               	clrz
  6286     04D0  1803               	skipnc
  6287     04D1  3E01               	addlw	1
  6288     04D2  1903               	skipnz
  6289     04D3  2CD5               	goto	u4591
  6290     04D4  07BA               	addwf	___flmul@grs+1,f
  6291     04D5                     u4591:
  6292     04D5  0834               	movf	??___flmul+2,w
  6293     04D6  1103               	clrz
  6294     04D7  1803               	skipnc
  6295     04D8  3E01               	addlw	1
  6296     04D9  1903               	skipnz
  6297     04DA  2CDC               	goto	u4592
  6298     04DB  07BB               	addwf	___flmul@grs+2,f
  6299     04DC                     u4592:
  6300     04DC  0835               	movf	??___flmul+3,w
  6301     04DD  1103               	clrz
  6302     04DE  1803               	skipnc
  6303     04DF  3E01               	addlw	1
  6304     04E0  1903               	skipnz
  6305     04E1  2CE3               	goto	u4593
  6306     04E2  07BC               	addwf	___flmul@grs+3,f
  6307     04E3                     u4593:
  6308     04E3                     l3433:
  6309     04E3  0843               	movf	___flmul@temp+1,w
  6310     04E4  00B2               	movwf	??___flmul
  6311     04E5  01B3               	clrf	??___flmul+1
  6312     04E6  01B4               	clrf	??___flmul+2
  6313     04E7  01B5               	clrf	??___flmul+3
  6314     04E8  0832               	movf	??___flmul,w
  6315     04E9  07BE               	addwf	___flmul@prod,f
  6316     04EA  0833               	movf	??___flmul+1,w
  6317     04EB  1103               	clrz
  6318     04EC  1803               	skipnc
  6319     04ED  3E01               	addlw	1
  6320     04EE  1903               	skipnz
  6321     04EF  2CF1               	goto	u4601
  6322     04F0  07BF               	addwf	___flmul@prod+1,f
  6323     04F1                     u4601:
  6324     04F1  0834               	movf	??___flmul+2,w
  6325     04F2  1103               	clrz
  6326     04F3  1803               	skipnc
  6327     04F4  3E01               	addlw	1
  6328     04F5  1903               	skipnz
  6329     04F6  2CF8               	goto	u4602
  6330     04F7  07C0               	addwf	___flmul@prod+2,f
  6331     04F8                     u4602:
  6332     04F8  0835               	movf	??___flmul+3,w
  6333     04F9  1103               	clrz
  6334     04FA  1803               	skipnc
  6335     04FB  3E01               	addlw	1
  6336     04FC  1903               	skipnz
  6337     04FD  2CFF               	goto	u4603
  6338     04FE  07C1               	addwf	___flmul@prod+3,f
  6339     04FF                     u4603:
  6340     04FF  082C               	movf	___flmul@b+2,w
  6341     0500  00F2               	movwf	__Umul8_16@multiplicand
  6342     0501  082E               	movf	___flmul@a,w
  6343     0502  160A  118A  24FC  120A  118A  	fcall	__Umul8_16
  6344     0507  0873               	movf	?__Umul8_16+1,w
  6345     0508  1283               	bcf	3,5	;RP0=0, select bank0
  6346     0509  1303               	bcf	3,6	;RP1=0, select bank0
  6347     050A  00C3               	movwf	___flmul@temp+1
  6348     050B  0872               	movf	?__Umul8_16,w
  6349     050C  00C2               	movwf	___flmul@temp
  6350     050D                     l3435:
  6351     050D  0842               	movf	___flmul@temp,w
  6352     050E  00B2               	movwf	??___flmul
  6353     050F  01B3               	clrf	??___flmul+1
  6354     0510  01B4               	clrf	??___flmul+2
  6355     0511  01B5               	clrf	??___flmul+3
  6356     0512  0832               	movf	??___flmul,w
  6357     0513  07B9               	addwf	___flmul@grs,f
  6358     0514  0833               	movf	??___flmul+1,w
  6359     0515  1103               	clrz
  6360     0516  1803               	skipnc
  6361     0517  3E01               	addlw	1
  6362     0518  1903               	skipnz
  6363     0519  2D1B               	goto	u4611
  6364     051A  07BA               	addwf	___flmul@grs+1,f
  6365     051B                     u4611:
  6366     051B  0834               	movf	??___flmul+2,w
  6367     051C  1103               	clrz
  6368     051D  1803               	skipnc
  6369     051E  3E01               	addlw	1
  6370     051F  1903               	skipnz
  6371     0520  2D22               	goto	u4612
  6372     0521  07BB               	addwf	___flmul@grs+2,f
  6373     0522                     u4612:
  6374     0522  0835               	movf	??___flmul+3,w
  6375     0523  1103               	clrz
  6376     0524  1803               	skipnc
  6377     0525  3E01               	addlw	1
  6378     0526  1903               	skipnz
  6379     0527  2D29               	goto	u4613
  6380     0528  07BC               	addwf	___flmul@grs+3,f
  6381     0529                     u4613:
  6382     0529                     l3437:
  6383     0529  0843               	movf	___flmul@temp+1,w
  6384     052A  00B2               	movwf	??___flmul
  6385     052B  01B3               	clrf	??___flmul+1
  6386     052C  01B4               	clrf	??___flmul+2
  6387     052D  01B5               	clrf	??___flmul+3
  6388     052E  0832               	movf	??___flmul,w
  6389     052F  07BE               	addwf	___flmul@prod,f
  6390     0530  0833               	movf	??___flmul+1,w
  6391     0531  1103               	clrz
  6392     0532  1803               	skipnc
  6393     0533  3E01               	addlw	1
  6394     0534  1903               	skipnz
  6395     0535  2D37               	goto	u4621
  6396     0536  07BF               	addwf	___flmul@prod+1,f
  6397     0537                     u4621:
  6398     0537  0834               	movf	??___flmul+2,w
  6399     0538  1103               	clrz
  6400     0539  1803               	skipnc
  6401     053A  3E01               	addlw	1
  6402     053B  1903               	skipnz
  6403     053C  2D3E               	goto	u4622
  6404     053D  07C0               	addwf	___flmul@prod+2,f
  6405     053E                     u4622:
  6406     053E  0835               	movf	??___flmul+3,w
  6407     053F  1103               	clrz
  6408     0540  1803               	skipnc
  6409     0541  3E01               	addlw	1
  6410     0542  1903               	skipnz
  6411     0543  2D45               	goto	u4623
  6412     0544  07C1               	addwf	___flmul@prod+3,f
  6413     0545                     u4623:
  6414     0545                     l3439:
  6415     0545  3008               	movlw	8
  6416     0546  00B2               	movwf	??___flmul
  6417     0547                     u4635:
  6418     0547  1003               	clrc
  6419     0548  0DB9               	rlf	___flmul@grs,f
  6420     0549  0DBA               	rlf	___flmul@grs+1,f
  6421     054A  0DBB               	rlf	___flmul@grs+2,f
  6422     054B  0DBC               	rlf	___flmul@grs+3,f
  6423     054C  0BB2               	decfsz	??___flmul,f
  6424     054D  2D47               	goto	u4635
  6425     054E                     l3441:
  6426     054E  082B               	movf	___flmul@b+1,w
  6427     054F  00F2               	movwf	__Umul8_16@multiplicand
  6428     0550  082E               	movf	___flmul@a,w
  6429     0551  160A  118A  24FC  120A  118A  	fcall	__Umul8_16
  6430     0556  0873               	movf	?__Umul8_16+1,w
  6431     0557  1283               	bcf	3,5	;RP0=0, select bank0
  6432     0558  1303               	bcf	3,6	;RP1=0, select bank0
  6433     0559  00C3               	movwf	___flmul@temp+1
  6434     055A  0872               	movf	?__Umul8_16,w
  6435     055B  00C2               	movwf	___flmul@temp
  6436     055C                     l3443:
  6437     055C  0842               	movf	___flmul@temp,w
  6438     055D  00B2               	movwf	??___flmul
  6439     055E  0843               	movf	___flmul@temp+1,w
  6440     055F  00B3               	movwf	??___flmul+1
  6441     0560  01B4               	clrf	??___flmul+2
  6442     0561  01B5               	clrf	??___flmul+3
  6443     0562  0832               	movf	??___flmul,w
  6444     0563  07B9               	addwf	___flmul@grs,f
  6445     0564  0833               	movf	??___flmul+1,w
  6446     0565  1103               	clrz
  6447     0566  1803               	skipnc
  6448     0567  3E01               	addlw	1
  6449     0568  1903               	skipnz
  6450     0569  2D6B               	goto	u4641
  6451     056A  07BA               	addwf	___flmul@grs+1,f
  6452     056B                     u4641:
  6453     056B  0834               	movf	??___flmul+2,w
  6454     056C  1103               	clrz
  6455     056D  1803               	skipnc
  6456     056E  3E01               	addlw	1
  6457     056F  1903               	skipnz
  6458     0570  2D72               	goto	u4642
  6459     0571  07BB               	addwf	___flmul@grs+2,f
  6460     0572                     u4642:
  6461     0572  0835               	movf	??___flmul+3,w
  6462     0573  1103               	clrz
  6463     0574  1803               	skipnc
  6464     0575  3E01               	addlw	1
  6465     0576  1903               	skipnz
  6466     0577  2D79               	goto	u4643
  6467     0578  07BC               	addwf	___flmul@grs+3,f
  6468     0579                     u4643:
  6469     0579                     l3445:
  6470     0579  082A               	movf	___flmul@b,w
  6471     057A  00F2               	movwf	__Umul8_16@multiplicand
  6472     057B  082F               	movf	___flmul@a+1,w
  6473     057C  160A  118A  24FC  120A  118A  	fcall	__Umul8_16
  6474     0581  0873               	movf	?__Umul8_16+1,w
  6475     0582  1283               	bcf	3,5	;RP0=0, select bank0
  6476     0583  1303               	bcf	3,6	;RP1=0, select bank0
  6477     0584  00C3               	movwf	___flmul@temp+1
  6478     0585  0872               	movf	?__Umul8_16,w
  6479     0586  00C2               	movwf	___flmul@temp
  6480     0587                     l3447:
  6481     0587  0842               	movf	___flmul@temp,w
  6482     0588  00B2               	movwf	??___flmul
  6483     0589  0843               	movf	___flmul@temp+1,w
  6484     058A  00B3               	movwf	??___flmul+1
  6485     058B  01B4               	clrf	??___flmul+2
  6486     058C  01B5               	clrf	??___flmul+3
  6487     058D  0832               	movf	??___flmul,w
  6488     058E  07B9               	addwf	___flmul@grs,f
  6489     058F  0833               	movf	??___flmul+1,w
  6490     0590  1103               	clrz
  6491     0591  1803               	skipnc
  6492     0592  3E01               	addlw	1
  6493     0593  1903               	skipnz
  6494     0594  2D96               	goto	u4651
  6495     0595  07BA               	addwf	___flmul@grs+1,f
  6496     0596                     u4651:
  6497     0596  0834               	movf	??___flmul+2,w
  6498     0597  1103               	clrz
  6499     0598  1803               	skipnc
  6500     0599  3E01               	addlw	1
  6501     059A  1903               	skipnz
  6502     059B  2D9D               	goto	u4652
  6503     059C  07BB               	addwf	___flmul@grs+2,f
  6504     059D                     u4652:
  6505     059D  0835               	movf	??___flmul+3,w
  6506     059E  1103               	clrz
  6507     059F  1803               	skipnc
  6508     05A0  3E01               	addlw	1
  6509     05A1  1903               	skipnz
  6510     05A2  2DA4               	goto	u4653
  6511     05A3  07BC               	addwf	___flmul@grs+3,f
  6512     05A4                     u4653:
  6513     05A4                     l3449:
  6514     05A4  3008               	movlw	8
  6515     05A5  00B2               	movwf	??___flmul
  6516     05A6                     u4665:
  6517     05A6  1003               	clrc
  6518     05A7  0DB9               	rlf	___flmul@grs,f
  6519     05A8  0DBA               	rlf	___flmul@grs+1,f
  6520     05A9  0DBB               	rlf	___flmul@grs+2,f
  6521     05AA  0DBC               	rlf	___flmul@grs+3,f
  6522     05AB  0BB2               	decfsz	??___flmul,f
  6523     05AC  2DA6               	goto	u4665
  6524     05AD  082A               	movf	___flmul@b,w
  6525     05AE  00F2               	movwf	__Umul8_16@multiplicand
  6526     05AF  082E               	movf	___flmul@a,w
  6527     05B0  160A  118A  24FC  120A  118A  	fcall	__Umul8_16
  6528     05B5  0873               	movf	?__Umul8_16+1,w
  6529     05B6  1283               	bcf	3,5	;RP0=0, select bank0
  6530     05B7  1303               	bcf	3,6	;RP1=0, select bank0
  6531     05B8  00C3               	movwf	___flmul@temp+1
  6532     05B9  0872               	movf	?__Umul8_16,w
  6533     05BA  00C2               	movwf	___flmul@temp
  6534     05BB                     l3451:
  6535     05BB  0842               	movf	___flmul@temp,w
  6536     05BC  00B2               	movwf	??___flmul
  6537     05BD  0843               	movf	___flmul@temp+1,w
  6538     05BE  00B3               	movwf	??___flmul+1
  6539     05BF  01B4               	clrf	??___flmul+2
  6540     05C0  01B5               	clrf	??___flmul+3
  6541     05C1  0832               	movf	??___flmul,w
  6542     05C2  07B9               	addwf	___flmul@grs,f
  6543     05C3  0833               	movf	??___flmul+1,w
  6544     05C4  1103               	clrz
  6545     05C5  1803               	skipnc
  6546     05C6  3E01               	addlw	1
  6547     05C7  1903               	skipnz
  6548     05C8  2DCA               	goto	u4671
  6549     05C9  07BA               	addwf	___flmul@grs+1,f
  6550     05CA                     u4671:
  6551     05CA  0834               	movf	??___flmul+2,w
  6552     05CB  1103               	clrz
  6553     05CC  1803               	skipnc
  6554     05CD  3E01               	addlw	1
  6555     05CE  1903               	skipnz
  6556     05CF  2DD1               	goto	u4672
  6557     05D0  07BB               	addwf	___flmul@grs+2,f
  6558     05D1                     u4672:
  6559     05D1  0835               	movf	??___flmul+3,w
  6560     05D2  1103               	clrz
  6561     05D3  1803               	skipnc
  6562     05D4  3E01               	addlw	1
  6563     05D5  1903               	skipnz
  6564     05D6  2DD8               	goto	u4673
  6565     05D7  07BC               	addwf	___flmul@grs+3,f
  6566     05D8                     u4673:
  6567     05D8                     l3453:
  6568     05D8  082B               	movf	___flmul@b+1,w
  6569     05D9  00F2               	movwf	__Umul8_16@multiplicand
  6570     05DA  0830               	movf	___flmul@a+2,w
  6571     05DB  160A  118A  24FC  120A  118A  	fcall	__Umul8_16
  6572     05E0  0873               	movf	?__Umul8_16+1,w
  6573     05E1  1283               	bcf	3,5	;RP0=0, select bank0
  6574     05E2  1303               	bcf	3,6	;RP1=0, select bank0
  6575     05E3  00C3               	movwf	___flmul@temp+1
  6576     05E4  0872               	movf	?__Umul8_16,w
  6577     05E5  00C2               	movwf	___flmul@temp
  6578     05E6  0842               	movf	___flmul@temp,w
  6579     05E7  00B2               	movwf	??___flmul
  6580     05E8  0843               	movf	___flmul@temp+1,w
  6581     05E9  00B3               	movwf	??___flmul+1
  6582     05EA  01B4               	clrf	??___flmul+2
  6583     05EB  01B5               	clrf	??___flmul+3
  6584     05EC  0832               	movf	??___flmul,w
  6585     05ED  07BE               	addwf	___flmul@prod,f
  6586     05EE  0833               	movf	??___flmul+1,w
  6587     05EF  1103               	clrz
  6588     05F0  1803               	skipnc
  6589     05F1  3E01               	addlw	1
  6590     05F2  1903               	skipnz
  6591     05F3  2DF5               	goto	u4681
  6592     05F4  07BF               	addwf	___flmul@prod+1,f
  6593     05F5                     u4681:
  6594     05F5  0834               	movf	??___flmul+2,w
  6595     05F6  1103               	clrz
  6596     05F7  1803               	skipnc
  6597     05F8  3E01               	addlw	1
  6598     05F9  1903               	skipnz
  6599     05FA  2DFC               	goto	u4682
  6600     05FB  07C0               	addwf	___flmul@prod+2,f
  6601     05FC                     u4682:
  6602     05FC  0835               	movf	??___flmul+3,w
  6603     05FD  1103               	clrz
  6604     05FE  1803               	skipnc
  6605     05FF  3E01               	addlw	1
  6606     0600  1903               	skipnz
  6607     0601  2E03               	goto	u4683
  6608     0602  07C1               	addwf	___flmul@prod+3,f
  6609     0603                     u4683:
  6610     0603                     l3455:
  6611     0603  082C               	movf	___flmul@b+2,w
  6612     0604  00F2               	movwf	__Umul8_16@multiplicand
  6613     0605  082F               	movf	___flmul@a+1,w
  6614     0606  160A  118A  24FC  120A  118A  	fcall	__Umul8_16
  6615     060B  0873               	movf	?__Umul8_16+1,w
  6616     060C  1283               	bcf	3,5	;RP0=0, select bank0
  6617     060D  1303               	bcf	3,6	;RP1=0, select bank0
  6618     060E  00C3               	movwf	___flmul@temp+1
  6619     060F  0872               	movf	?__Umul8_16,w
  6620     0610  00C2               	movwf	___flmul@temp
  6621     0611                     l3457:
  6622     0611  0842               	movf	___flmul@temp,w
  6623     0612  00B2               	movwf	??___flmul
  6624     0613  0843               	movf	___flmul@temp+1,w
  6625     0614  00B3               	movwf	??___flmul+1
  6626     0615  01B4               	clrf	??___flmul+2
  6627     0616  01B5               	clrf	??___flmul+3
  6628     0617  0832               	movf	??___flmul,w
  6629     0618  07BE               	addwf	___flmul@prod,f
  6630     0619  0833               	movf	??___flmul+1,w
  6631     061A  1103               	clrz
  6632     061B  1803               	skipnc
  6633     061C  3E01               	addlw	1
  6634     061D  1903               	skipnz
  6635     061E  2E20               	goto	u4691
  6636     061F  07BF               	addwf	___flmul@prod+1,f
  6637     0620                     u4691:
  6638     0620  0834               	movf	??___flmul+2,w
  6639     0621  1103               	clrz
  6640     0622  1803               	skipnc
  6641     0623  3E01               	addlw	1
  6642     0624  1903               	skipnz
  6643     0625  2E27               	goto	u4692
  6644     0626  07C0               	addwf	___flmul@prod+2,f
  6645     0627                     u4692:
  6646     0627  0835               	movf	??___flmul+3,w
  6647     0628  1103               	clrz
  6648     0629  1803               	skipnc
  6649     062A  3E01               	addlw	1
  6650     062B  1903               	skipnz
  6651     062C  2E2E               	goto	u4693
  6652     062D  07C1               	addwf	___flmul@prod+3,f
  6653     062E                     u4693:
  6654     062E  082C               	movf	___flmul@b+2,w
  6655     062F  00F2               	movwf	__Umul8_16@multiplicand
  6656     0630  0830               	movf	___flmul@a+2,w
  6657     0631  160A  118A  24FC  120A  118A  	fcall	__Umul8_16
  6658     0636  0873               	movf	?__Umul8_16+1,w
  6659     0637  1283               	bcf	3,5	;RP0=0, select bank0
  6660     0638  1303               	bcf	3,6	;RP1=0, select bank0
  6661     0639  00C3               	movwf	___flmul@temp+1
  6662     063A  0872               	movf	?__Umul8_16,w
  6663     063B  00C2               	movwf	___flmul@temp
  6664     063C                     l3459:
  6665     063C  0842               	movf	___flmul@temp,w
  6666     063D  00B2               	movwf	??___flmul
  6667     063E  0843               	movf	___flmul@temp+1,w
  6668     063F  00B3               	movwf	??___flmul+1
  6669     0640  01B4               	clrf	??___flmul+2
  6670     0641  01B5               	clrf	??___flmul+3
  6671     0642  3008               	movlw	8
  6672     0643                     u4705:
  6673     0643  1003               	clrc
  6674     0644  0DB2               	rlf	??___flmul,f
  6675     0645  0DB3               	rlf	??___flmul+1,f
  6676     0646  0DB4               	rlf	??___flmul+2,f
  6677     0647  0DB5               	rlf	??___flmul+3,f
  6678     0648                     u4700:
  6679     0648  3EFF               	addlw	-1
  6680     0649  1D03               	skipz
  6681     064A  2E43               	goto	u4705
  6682     064B  0832               	movf	??___flmul,w
  6683     064C  07BE               	addwf	___flmul@prod,f
  6684     064D  0833               	movf	??___flmul+1,w
  6685     064E  1103               	clrz
  6686     064F  1803               	skipnc
  6687     0650  3E01               	addlw	1
  6688     0651  1903               	skipnz
  6689     0652  2E54               	goto	u4711
  6690     0653  07BF               	addwf	___flmul@prod+1,f
  6691     0654                     u4711:
  6692     0654  0834               	movf	??___flmul+2,w
  6693     0655  1103               	clrz
  6694     0656  1803               	skipnc
  6695     0657  3E01               	addlw	1
  6696     0658  1903               	skipnz
  6697     0659  2E5B               	goto	u4712
  6698     065A  07C0               	addwf	___flmul@prod+2,f
  6699     065B                     u4712:
  6700     065B  0835               	movf	??___flmul+3,w
  6701     065C  1103               	clrz
  6702     065D  1803               	skipnc
  6703     065E  3E01               	addlw	1
  6704     065F  1903               	skipnz
  6705     0660  2E62               	goto	u4713
  6706     0661  07C1               	addwf	___flmul@prod+3,f
  6707     0662                     u4713:
  6708     0662                     l3461:
  6709     0662  0839               	movf	___flmul@grs,w
  6710     0663  00B2               	movwf	??___flmul
  6711     0664  083A               	movf	___flmul@grs+1,w
  6712     0665  00B3               	movwf	??___flmul+1
  6713     0666  083B               	movf	___flmul@grs+2,w
  6714     0667  00B4               	movwf	??___flmul+2
  6715     0668  083C               	movf	___flmul@grs+3,w
  6716     0669  00B5               	movwf	??___flmul+3
  6717     066A  3018               	movlw	24
  6718     066B                     u4725:
  6719     066B  1003               	clrc
  6720     066C  0CB5               	rrf	??___flmul+3,f
  6721     066D  0CB4               	rrf	??___flmul+2,f
  6722     066E  0CB3               	rrf	??___flmul+1,f
  6723     066F  0CB2               	rrf	??___flmul,f
  6724     0670                     u4720:
  6725     0670  3EFF               	addlw	-1
  6726     0671  1D03               	skipz
  6727     0672  2E6B               	goto	u4725
  6728     0673  0832               	movf	??___flmul,w
  6729     0674  07BE               	addwf	___flmul@prod,f
  6730     0675  0833               	movf	??___flmul+1,w
  6731     0676  1103               	clrz
  6732     0677  1803               	skipnc
  6733     0678  3E01               	addlw	1
  6734     0679  1903               	skipnz
  6735     067A  2E7C               	goto	u4731
  6736     067B  07BF               	addwf	___flmul@prod+1,f
  6737     067C                     u4731:
  6738     067C  0834               	movf	??___flmul+2,w
  6739     067D  1103               	clrz
  6740     067E  1803               	skipnc
  6741     067F  3E01               	addlw	1
  6742     0680  1903               	skipnz
  6743     0681  2E83               	goto	u4732
  6744     0682  07C0               	addwf	___flmul@prod+2,f
  6745     0683                     u4732:
  6746     0683  0835               	movf	??___flmul+3,w
  6747     0684  1103               	clrz
  6748     0685  1803               	skipnc
  6749     0686  3E01               	addlw	1
  6750     0687  1903               	skipnz
  6751     0688  2E8A               	goto	u4733
  6752     0689  07C1               	addwf	___flmul@prod+3,f
  6753     068A                     u4733:
  6754     068A                     l3463:
  6755     068A  3008               	movlw	8
  6756     068B  00B2               	movwf	??___flmul
  6757     068C                     u4745:
  6758     068C  1003               	clrc
  6759     068D  0DB9               	rlf	___flmul@grs,f
  6760     068E  0DBA               	rlf	___flmul@grs+1,f
  6761     068F  0DBB               	rlf	___flmul@grs+2,f
  6762     0690  0DBC               	rlf	___flmul@grs+3,f
  6763     0691  0BB2               	decfsz	??___flmul,f
  6764     0692  2E8C               	goto	u4745
  6765     0693                     l3465:
  6766     0693  083D               	movf	___flmul@bexp,w
  6767     0694  0738               	addwf	___flmul@aexp,w
  6768     0695  00B2               	movwf	??___flmul
  6769     0696  01B3               	clrf	??___flmul+1
  6770     0697  0DB3               	rlf	??___flmul+1,f
  6771     0698  0832               	movf	??___flmul,w
  6772     0699  3E82               	addlw	130
  6773     069A  00C2               	movwf	___flmul@temp
  6774     069B  0833               	movf	??___flmul+1,w
  6775     069C  1803               	skipnc
  6776     069D  3E01               	addlw	1
  6777     069E  3EFF               	addlw	255
  6778     069F  00C3               	movwf	___flmul@temp+1
  6779     06A0  2EBE               	goto	l3477
  6780     06A1                     l3467:
  6781     06A1  3001               	movlw	1
  6782     06A2  00B2               	movwf	??___flmul
  6783     06A3                     u4755:
  6784     06A3  1003               	clrc
  6785     06A4  0DBE               	rlf	___flmul@prod,f
  6786     06A5  0DBF               	rlf	___flmul@prod+1,f
  6787     06A6  0DC0               	rlf	___flmul@prod+2,f
  6788     06A7  0DC1               	rlf	___flmul@prod+3,f
  6789     06A8  0BB2               	decfsz	??___flmul,f
  6790     06A9  2EA3               	goto	u4755
  6791     06AA                     l3469:
  6792     06AA  1FBC               	btfss	___flmul@grs+3,7
  6793     06AB  2EAD               	goto	u4761
  6794     06AC  2EAE               	goto	u4760
  6795     06AD                     u4761:
  6796     06AD  2EAF               	goto	l3473
  6797     06AE                     u4760:
  6798     06AE                     l3471:
  6799     06AE  143E               	bsf	___flmul@prod,0
  6800     06AF                     l3473:
  6801     06AF  3001               	movlw	1
  6802     06B0  00B2               	movwf	??___flmul
  6803     06B1                     u4775:
  6804     06B1  1003               	clrc
  6805     06B2  0DB9               	rlf	___flmul@grs,f
  6806     06B3  0DBA               	rlf	___flmul@grs+1,f
  6807     06B4  0DBB               	rlf	___flmul@grs+2,f
  6808     06B5  0DBC               	rlf	___flmul@grs+3,f
  6809     06B6  0BB2               	decfsz	??___flmul,f
  6810     06B7  2EB1               	goto	u4775
  6811     06B8                     l3475:
  6812     06B8  30FF               	movlw	255
  6813     06B9  07C2               	addwf	___flmul@temp,f
  6814     06BA  1803               	skipnc
  6815     06BB  0AC3               	incf	___flmul@temp+1,f
  6816     06BC  30FF               	movlw	255
  6817     06BD  07C3               	addwf	___flmul@temp+1,f
  6818     06BE                     l3477:
  6819     06BE  1FC0               	btfss	___flmul@prod+2,7
  6820     06BF  2EC1               	goto	u4781
  6821     06C0  2EC2               	goto	u4780
  6822     06C1                     u4781:
  6823     06C1  2EA1               	goto	l3467
  6824     06C2                     u4780:
  6825     06C2                     l3479:
  6826     06C2  01B8               	clrf	___flmul@aexp
  6827     06C3                     l3481:
  6828     06C3  1FBC               	btfss	___flmul@grs+3,7
  6829     06C4  2EC6               	goto	u4791
  6830     06C5  2EC7               	goto	u4790
  6831     06C6                     u4791:
  6832     06C6  2EE3               	goto	l3489
  6833     06C7                     u4790:
  6834     06C7                     l3483:
  6835     06C7  30FF               	movlw	255
  6836     06C8  0539               	andwf	___flmul@grs,w
  6837     06C9  00B2               	movwf	??___flmul
  6838     06CA  30FF               	movlw	255
  6839     06CB  053A               	andwf	___flmul@grs+1,w
  6840     06CC  00B3               	movwf	??___flmul+1
  6841     06CD  30FF               	movlw	255
  6842     06CE  053B               	andwf	___flmul@grs+2,w
  6843     06CF  00B4               	movwf	??___flmul+2
  6844     06D0  307F               	movlw	127
  6845     06D1  053C               	andwf	___flmul@grs+3,w
  6846     06D2  00B5               	movwf	??___flmul+3
  6847     06D3  0835               	movf	??___flmul+3,w
  6848     06D4  0434               	iorwf	??___flmul+2,w
  6849     06D5  0433               	iorwf	??___flmul+1,w
  6850     06D6  0432               	iorwf	??___flmul,w
  6851     06D7  1903               	skipnz
  6852     06D8  2EDA               	goto	u4801
  6853     06D9  2EDB               	goto	u4800
  6854     06DA                     u4801:
  6855     06DA  2EDE               	goto	l846
  6856     06DB                     u4800:
  6857     06DB                     l3485:
  6858     06DB  3001               	movlw	1
  6859     06DC  00B8               	movwf	___flmul@aexp
  6860     06DD  2EE3               	goto	l3489
  6861     06DE                     l846:
  6862     06DE  1C3E               	btfss	___flmul@prod,0
  6863     06DF  2EE1               	goto	u4811
  6864     06E0  2EE2               	goto	u4810
  6865     06E1                     u4811:
  6866     06E1  2EE3               	goto	l3489
  6867     06E2                     u4810:
  6868     06E2  2EDB               	goto	l3485
  6869     06E3                     l3489:
  6870     06E3  0838               	movf	___flmul@aexp,w
  6871     06E4  1903               	btfsc	3,2
  6872     06E5  2EE7               	goto	u4821
  6873     06E6  2EE8               	goto	u4820
  6874     06E7                     u4821:
  6875     06E7  2F19               	goto	l3499
  6876     06E8                     u4820:
  6877     06E8                     l3491:
  6878     06E8  3001               	movlw	1
  6879     06E9  07BE               	addwf	___flmul@prod,f
  6880     06EA  3000               	movlw	0
  6881     06EB  1803               	skipnc
  6882     06EC  3001               	movlw	1
  6883     06ED  07BF               	addwf	___flmul@prod+1,f
  6884     06EE  3000               	movlw	0
  6885     06EF  1803               	skipnc
  6886     06F0  3001               	movlw	1
  6887     06F1  07C0               	addwf	___flmul@prod+2,f
  6888     06F2  3000               	movlw	0
  6889     06F3  1803               	skipnc
  6890     06F4  3001               	movlw	1
  6891     06F5  07C1               	addwf	___flmul@prod+3,f
  6892     06F6                     l3493:
  6893     06F6  1C41               	btfss	___flmul@prod+3,0
  6894     06F7  2EF9               	goto	u4831
  6895     06F8  2EFA               	goto	u4830
  6896     06F9                     u4831:
  6897     06F9  2F19               	goto	l3499
  6898     06FA                     u4830:
  6899     06FA                     l3495:
  6900     06FA  083E               	movf	___flmul@prod,w
  6901     06FB  00B2               	movwf	??___flmul
  6902     06FC  083F               	movf	___flmul@prod+1,w
  6903     06FD  00B3               	movwf	??___flmul+1
  6904     06FE  0840               	movf	___flmul@prod+2,w
  6905     06FF  00B4               	movwf	??___flmul+2
  6906     0700  0841               	movf	___flmul@prod+3,w
  6907     0701  00B5               	movwf	??___flmul+3
  6908     0702  3001               	movlw	1
  6909     0703  00B6               	movwf	??___flmul+4
  6910     0704                     u4845:
  6911     0704  0D35               	rlf	??___flmul+3,w
  6912     0705  0CB5               	rrf	??___flmul+3,f
  6913     0706  0CB4               	rrf	??___flmul+2,f
  6914     0707  0CB3               	rrf	??___flmul+1,f
  6915     0708  0CB2               	rrf	??___flmul,f
  6916     0709                     u4840:
  6917     0709  0BB6               	decfsz	??___flmul+4,f
  6918     070A  2F04               	goto	u4845
  6919     070B  0835               	movf	??___flmul+3,w
  6920     070C  00C1               	movwf	___flmul@prod+3
  6921     070D  0834               	movf	??___flmul+2,w
  6922     070E  00C0               	movwf	___flmul@prod+2
  6923     070F  0833               	movf	??___flmul+1,w
  6924     0710  00BF               	movwf	___flmul@prod+1
  6925     0711  0832               	movf	??___flmul,w
  6926     0712  00BE               	movwf	___flmul@prod
  6927     0713                     l3497:
  6928     0713  3001               	movlw	1
  6929     0714  07C2               	addwf	___flmul@temp,f
  6930     0715  1803               	skipnc
  6931     0716  0AC3               	incf	___flmul@temp+1,f
  6932     0717  3000               	movlw	0
  6933     0718  07C3               	addwf	___flmul@temp+1,f
  6934     0719                     l3499:
  6935     0719  0843               	movf	___flmul@temp+1,w
  6936     071A  3A80               	xorlw	128
  6937     071B  00FF               	movwf	btemp+1
  6938     071C  3080               	movlw	128
  6939     071D  027F               	subwf	btemp+1,w
  6940     071E  1D03               	skipz
  6941     071F  2F22               	goto	u4855
  6942     0720  30FF               	movlw	255
  6943     0721  0242               	subwf	___flmul@temp,w
  6944     0722                     u4855:
  6945     0722  1C03               	skipc
  6946     0723  2F25               	goto	u4851
  6947     0724  2F26               	goto	u4850
  6948     0725                     u4851:
  6949     0725  2F31               	goto	l3503
  6950     0726                     u4850:
  6951     0726                     l3501:
  6952     0726  307F               	movlw	127
  6953     0727  1283               	bcf	3,5	;RP0=0, select bank0
  6954     0728  1303               	bcf	3,6	;RP1=0, select bank0
  6955     0729  00C1               	movwf	___flmul@prod+3
  6956     072A  3080               	movlw	128
  6957     072B  00C0               	movwf	___flmul@prod+2
  6958     072C  3000               	movlw	0
  6959     072D  00BF               	movwf	___flmul@prod+1
  6960     072E  3000               	movlw	0
  6961     072F  00BE               	movwf	___flmul@prod
  6962     0730  2F62               	goto	l852
  6963     0731                     l3503:
  6964     0731  1283               	bcf	3,5	;RP0=0, select bank0
  6965     0732  1303               	bcf	3,6	;RP1=0, select bank0
  6966     0733  0843               	movf	___flmul@temp+1,w
  6967     0734  3A80               	xorlw	128
  6968     0735  00FF               	movwf	btemp+1
  6969     0736  3080               	movlw	128
  6970     0737  027F               	subwf	btemp+1,w
  6971     0738  1D03               	skipz
  6972     0739  2F3C               	goto	u4865
  6973     073A  3001               	movlw	1
  6974     073B  0242               	subwf	___flmul@temp,w
  6975     073C                     u4865:
  6976     073C  1803               	skipnc
  6977     073D  2F3F               	goto	u4861
  6978     073E  2F40               	goto	u4860
  6979     073F                     u4861:
  6980     073F  2F4C               	goto	l3509
  6981     0740                     u4860:
  6982     0740                     l3505:
  6983     0740  3000               	movlw	0
  6984     0741  1283               	bcf	3,5	;RP0=0, select bank0
  6985     0742  1303               	bcf	3,6	;RP1=0, select bank0
  6986     0743  00C1               	movwf	___flmul@prod+3
  6987     0744  3000               	movlw	0
  6988     0745  00C0               	movwf	___flmul@prod+2
  6989     0746  3000               	movlw	0
  6990     0747  00BF               	movwf	___flmul@prod+1
  6991     0748  3000               	movlw	0
  6992     0749  00BE               	movwf	___flmul@prod
  6993     074A                     l3507:
  6994     074A  01B7               	clrf	___flmul@sign
  6995     074B  2F62               	goto	l852
  6996     074C                     l3509:
  6997     074C  1283               	bcf	3,5	;RP0=0, select bank0
  6998     074D  1303               	bcf	3,6	;RP1=0, select bank0
  6999     074E  0842               	movf	___flmul@temp,w
  7000     074F  00BD               	movwf	___flmul@bexp
  7001     0750  30FF               	movlw	255
  7002     0751  05BE               	andwf	___flmul@prod,f
  7003     0752  30FF               	movlw	255
  7004     0753  05BF               	andwf	___flmul@prod+1,f
  7005     0754  307F               	movlw	127
  7006     0755  05C0               	andwf	___flmul@prod+2,f
  7007     0756  3000               	movlw	0
  7008     0757  05C1               	andwf	___flmul@prod+3,f
  7009     0758                     l3511:
  7010     0758  1C3D               	btfss	___flmul@bexp,0
  7011     0759  2F5B               	goto	u4871
  7012     075A  2F5C               	goto	u4870
  7013     075B                     u4871:
  7014     075B  2F5D               	goto	l3515
  7015     075C                     u4870:
  7016     075C                     l3513:
  7017     075C  17C0               	bsf	___flmul@prod+2,7
  7018     075D                     l3515:
  7019     075D  083D               	movf	___flmul@bexp,w
  7020     075E  00B2               	movwf	??___flmul
  7021     075F  1003               	clrc
  7022     0760  0C32               	rrf	??___flmul,w
  7023     0761  00C1               	movwf	___flmul@prod+3
  7024     0762                     l852:
  7025     0762  0837               	movf	___flmul@sign,w
  7026     0763  04C1               	iorwf	___flmul@prod+3,f
  7027     0764                     l3517:
  7028     0764  0841               	movf	___flmul@prod+3,w
  7029     0765  00AD               	movwf	?___flmul+3
  7030     0766  0840               	movf	___flmul@prod+2,w
  7031     0767  00AC               	movwf	?___flmul+2
  7032     0768  083F               	movf	___flmul@prod+1,w
  7033     0769  00AB               	movwf	?___flmul+1
  7034     076A  083E               	movf	___flmul@prod,w
  7035     076B  00AA               	movwf	?___flmul
  7036     076C                     l840:
  7037     076C  0008               	return
  7038     076D                     __end_of___flmul:
  7039                           
  7040                           	psect	text13
  7041     14FC                     __ptext13:	
  7042 ;; *************** function __Umul8_16 *****************
  7043 ;; Defined at:
  7044 ;;		line 4 in file "/opt/microchip/xc8/v3.00/pic/sources/c99/common/Umul8_16.c"
  7045 ;; Parameters:    Size  Location     Type
  7046 ;;  multiplier      1    wreg     unsigned char 
  7047 ;;  multiplicand    1    2[COMMON] unsigned char 
  7048 ;; Auto vars:     Size  Location     Type
  7049 ;;  multiplier      1    4[BANK0 ] unsigned char 
  7050 ;;  word_mpld       2    2[BANK0 ] unsigned short 
  7051 ;;  product         2    0[BANK0 ] unsigned short 
  7052 ;; Return value:  Size  Location     Type
  7053 ;;                  2    2[COMMON] unsigned int 
  7054 ;; Registers used:
  7055 ;;		wreg, status,2, status,0
  7056 ;; Tracked objects:
  7057 ;;		On entry : 0/0
  7058 ;;		On exit  : 0/0
  7059 ;;		Unchanged: 0/0
  7060 ;; Data sizes:     COMMON   BANK0   BANK1   BANK3   BANK2
  7061 ;;      Params:         2       0       0       0       0
  7062 ;;      Locals:         0       5       0       0       0
  7063 ;;      Temps:          2       0       0       0       0
  7064 ;;      Totals:         4       5       0       0       0
  7065 ;;Total ram usage:        9 bytes
  7066 ;; Hardware stack levels used: 1
  7067 ;; Hardware stack levels required when called: 1
  7068 ;; This function calls:
  7069 ;;		Nothing
  7070 ;; This function is called by:
  7071 ;;		___flmul
  7072 ;; This function uses a non-reentrant model
  7073 ;;
  7074                           
  7075     14FC                     __Umul8_16:	
  7076                           ;psect for function __Umul8_16
  7077                           
  7078                           
  7079                           ;incstack = 0
  7080                           ; Regs used in __Umul8_16: [wreg+status,2+status,0]
  7081                           ;__Umul8_16@multiplier stored from wreg
  7082     14FC  1283               	bcf	3,5	;RP0=0, select bank0
  7083     14FD  1303               	bcf	3,6	;RP1=0, select bank0
  7084     14FE  00A4               	movwf	__Umul8_16@multiplier
  7085     14FF                     l3175:
  7086     14FF  01A0               	clrf	__Umul8_16@product
  7087     1500  01A1               	clrf	__Umul8_16@product+1
  7088     1501                     l3177:
  7089     1501  0872               	movf	__Umul8_16@multiplicand,w
  7090     1502  00F4               	movwf	??__Umul8_16
  7091     1503  01F5               	clrf	??__Umul8_16+1
  7092     1504  0874               	movf	??__Umul8_16,w
  7093     1505  00A2               	movwf	__Umul8_16@word_mpld
  7094     1506  0875               	movf	??__Umul8_16+1,w
  7095     1507  00A3               	movwf	__Umul8_16@word_mpld+1
  7096     1508                     l3179:
  7097     1508  1C24               	btfss	__Umul8_16@multiplier,0
  7098     1509  2D0B               	goto	u4061
  7099     150A  2D0C               	goto	u4060
  7100     150B                     u4061:
  7101     150B  2D12               	goto	l859
  7102     150C                     u4060:
  7103     150C                     l3181:
  7104     150C  0822               	movf	__Umul8_16@word_mpld,w
  7105     150D  07A0               	addwf	__Umul8_16@product,f
  7106     150E  1803               	skipnc
  7107     150F  0AA1               	incf	__Umul8_16@product+1,f
  7108     1510  0823               	movf	__Umul8_16@word_mpld+1,w
  7109     1511  07A1               	addwf	__Umul8_16@product+1,f
  7110     1512                     l859:
  7111     1512  3001               	movlw	1
  7112     1513                     u4075:
  7113     1513  1003               	clrc
  7114     1514  0DA2               	rlf	__Umul8_16@word_mpld,f
  7115     1515  0DA3               	rlf	__Umul8_16@word_mpld+1,f
  7116     1516  3EFF               	addlw	-1
  7117     1517  1D03               	skipz
  7118     1518  2D13               	goto	u4075
  7119     1519  1003               	clrc
  7120     151A  0CA4               	rrf	__Umul8_16@multiplier,f
  7121     151B                     l3183:
  7122     151B  0824               	movf	__Umul8_16@multiplier,w
  7123     151C  1D03               	btfss	3,2
  7124     151D  2D1F               	goto	u4081
  7125     151E  2D20               	goto	u4080
  7126     151F                     u4081:
  7127     151F  2D08               	goto	l3179
  7128     1520                     u4080:
  7129     1520                     l3185:
  7130     1520  0821               	movf	__Umul8_16@product+1,w
  7131     1521  00F3               	movwf	?__Umul8_16+1
  7132     1522  0820               	movf	__Umul8_16@product,w
  7133     1523  00F2               	movwf	?__Umul8_16
  7134     1524                     l861:
  7135     1524  0008               	return
  7136     1525                     __end_of__Umul8_16:
  7137                           
  7138                           	psect	text14
  7139     087D                     __ptext14:	
  7140 ;; *************** function ___flge *****************
  7141 ;; Defined at:
  7142 ;;		line 4 in file "/opt/microchip/xc8/v3.00/pic/sources/c99/common/flge.c"
  7143 ;; Parameters:    Size  Location     Type
  7144 ;;  ff1             4   44[BANK0 ] unsigned int 
  7145 ;;  ff2             4   48[BANK0 ] unsigned int 
  7146 ;; Auto vars:     Size  Location     Type
  7147 ;;		None
  7148 ;; Return value:  Size  Location     Type
  7149 ;;		None               void
  7150 ;; Registers used:
  7151 ;;		wreg, status,2, status,0
  7152 ;; Tracked objects:
  7153 ;;		On entry : 0/0
  7154 ;;		On exit  : 0/0
  7155 ;;		Unchanged: 0/0
  7156 ;; Data sizes:     COMMON   BANK0   BANK1   BANK3   BANK2
  7157 ;;      Params:         0       8       0       0       0
  7158 ;;      Locals:         0       0       0       0       0
  7159 ;;      Temps:          0       4       0       0       0
  7160 ;;      Totals:         0      12       0       0       0
  7161 ;;Total ram usage:       12 bytes
  7162 ;; Hardware stack levels used: 1
  7163 ;; Hardware stack levels required when called: 1
  7164 ;; This function calls:
  7165 ;;		Nothing
  7166 ;; This function is called by:
  7167 ;;		_run_program
  7168 ;; This function uses a non-reentrant model
  7169 ;;
  7170                           
  7171     087D                     ___flge:	
  7172                           ;psect for function ___flge
  7173                           
  7174     087D                     l3317:	
  7175                           ;incstack = 0
  7176                           ; Regs used in ___flge: [wreg+status,2+status,0]
  7177                           
  7178     087D  3000               	movlw	0
  7179     087E  1283               	bcf	3,5	;RP0=0, select bank0
  7180     087F  1303               	bcf	3,6	;RP1=0, select bank0
  7181     0880  054C               	andwf	___flge@ff1,w
  7182     0881  00D4               	movwf	??___flge
  7183     0882  3000               	movlw	0
  7184     0883  054D               	andwf	___flge@ff1+1,w
  7185     0884  00D5               	movwf	??___flge+1
  7186     0885  3080               	movlw	128
  7187     0886  054E               	andwf	___flge@ff1+2,w
  7188     0887  00D6               	movwf	??___flge+2
  7189     0888  307F               	movlw	127
  7190     0889  054F               	andwf	___flge@ff1+3,w
  7191     088A  00D7               	movwf	??___flge+3
  7192     088B  0857               	movf	??___flge+3,w
  7193     088C  0456               	iorwf	??___flge+2,w
  7194     088D  0455               	iorwf	??___flge+1,w
  7195     088E  0454               	iorwf	??___flge,w
  7196     088F  1D03               	skipz
  7197     0890  2892               	goto	u4341
  7198     0891  2893               	goto	u4340
  7199     0892                     u4341:
  7200     0892  289B               	goto	l621
  7201     0893                     u4340:
  7202     0893                     l3319:
  7203     0893  3000               	movlw	0
  7204     0894  00CF               	movwf	___flge@ff1+3
  7205     0895  3000               	movlw	0
  7206     0896  00CE               	movwf	___flge@ff1+2
  7207     0897  3000               	movlw	0
  7208     0898  00CD               	movwf	___flge@ff1+1
  7209     0899  3000               	movlw	0
  7210     089A  00CC               	movwf	___flge@ff1
  7211     089B                     l621:
  7212     089B  3000               	movlw	0
  7213     089C  0550               	andwf	___flge@ff2,w
  7214     089D  00D4               	movwf	??___flge
  7215     089E  3000               	movlw	0
  7216     089F  0551               	andwf	___flge@ff2+1,w
  7217     08A0  00D5               	movwf	??___flge+1
  7218     08A1  3080               	movlw	128
  7219     08A2  0552               	andwf	___flge@ff2+2,w
  7220     08A3  00D6               	movwf	??___flge+2
  7221     08A4  307F               	movlw	127
  7222     08A5  0553               	andwf	___flge@ff2+3,w
  7223     08A6  00D7               	movwf	??___flge+3
  7224     08A7  0857               	movf	??___flge+3,w
  7225     08A8  0456               	iorwf	??___flge+2,w
  7226     08A9  0455               	iorwf	??___flge+1,w
  7227     08AA  0454               	iorwf	??___flge,w
  7228     08AB  1D03               	skipz
  7229     08AC  28AE               	goto	u4351
  7230     08AD  28AF               	goto	u4350
  7231     08AE                     u4351:
  7232     08AE  28B7               	goto	l3323
  7233     08AF                     u4350:
  7234     08AF                     l3321:
  7235     08AF  3000               	movlw	0
  7236     08B0  00D3               	movwf	___flge@ff2+3
  7237     08B1  3000               	movlw	0
  7238     08B2  00D2               	movwf	___flge@ff2+2
  7239     08B3  3000               	movlw	0
  7240     08B4  00D1               	movwf	___flge@ff2+1
  7241     08B5  3000               	movlw	0
  7242     08B6  00D0               	movwf	___flge@ff2
  7243     08B7                     l3323:
  7244     08B7  1FCF               	btfss	___flge@ff1+3,7
  7245     08B8  28BA               	goto	u4361
  7246     08B9  28BB               	goto	u4360
  7247     08BA                     u4361:
  7248     08BA  28DF               	goto	l3327
  7249     08BB                     u4360:
  7250     08BB                     l3325:
  7251     08BB  3000               	movlw	0
  7252     08BC  00D4               	movwf	??___flge
  7253     08BD  3000               	movlw	0
  7254     08BE  00D5               	movwf	??___flge+1
  7255     08BF  3000               	movlw	0
  7256     08C0  00D6               	movwf	??___flge+2
  7257     08C1  3080               	movlw	128
  7258     08C2  00D7               	movwf	??___flge+3
  7259     08C3  084C               	movf	___flge@ff1,w
  7260     08C4  02D4               	subwf	??___flge,f
  7261     08C5  084D               	movf	___flge@ff1+1,w
  7262     08C6  1C03               	skipc
  7263     08C7  0F4D               	incfsz	___flge@ff1+1,w
  7264     08C8  28CA               	goto	u4371
  7265     08C9  28CB               	goto	u4372
  7266     08CA                     u4371:
  7267     08CA  02D5               	subwf	??___flge+1,f
  7268     08CB                     u4372:
  7269     08CB  084E               	movf	___flge@ff1+2,w
  7270     08CC  1C03               	skipc
  7271     08CD  0F4E               	incfsz	___flge@ff1+2,w
  7272     08CE  28D0               	goto	u4373
  7273     08CF  28D1               	goto	u4374
  7274     08D0                     u4373:
  7275     08D0  02D6               	subwf	??___flge+2,f
  7276     08D1                     u4374:
  7277     08D1  084F               	movf	___flge@ff1+3,w
  7278     08D2  1C03               	skipc
  7279     08D3  0F4F               	incfsz	___flge@ff1+3,w
  7280     08D4  28D6               	goto	u4375
  7281     08D5  28D7               	goto	u4376
  7282     08D6                     u4375:
  7283     08D6  02D7               	subwf	??___flge+3,f
  7284     08D7                     u4376:
  7285     08D7  0857               	movf	??___flge+3,w
  7286     08D8  00CF               	movwf	___flge@ff1+3
  7287     08D9  0856               	movf	??___flge+2,w
  7288     08DA  00CE               	movwf	___flge@ff1+2
  7289     08DB  0855               	movf	??___flge+1,w
  7290     08DC  00CD               	movwf	___flge@ff1+1
  7291     08DD  0854               	movf	??___flge,w
  7292     08DE  00CC               	movwf	___flge@ff1
  7293     08DF                     l3327:
  7294     08DF  1FD3               	btfss	___flge@ff2+3,7
  7295     08E0  28E2               	goto	u4381
  7296     08E1  28E3               	goto	u4380
  7297     08E2                     u4381:
  7298     08E2  2907               	goto	l624
  7299     08E3                     u4380:
  7300     08E3                     l3329:
  7301     08E3  3000               	movlw	0
  7302     08E4  00D4               	movwf	??___flge
  7303     08E5  3000               	movlw	0
  7304     08E6  00D5               	movwf	??___flge+1
  7305     08E7  3000               	movlw	0
  7306     08E8  00D6               	movwf	??___flge+2
  7307     08E9  3080               	movlw	128
  7308     08EA  00D7               	movwf	??___flge+3
  7309     08EB  0850               	movf	___flge@ff2,w
  7310     08EC  02D4               	subwf	??___flge,f
  7311     08ED  0851               	movf	___flge@ff2+1,w
  7312     08EE  1C03               	skipc
  7313     08EF  0F51               	incfsz	___flge@ff2+1,w
  7314     08F0  28F2               	goto	u4391
  7315     08F1  28F3               	goto	u4392
  7316     08F2                     u4391:
  7317     08F2  02D5               	subwf	??___flge+1,f
  7318     08F3                     u4392:
  7319     08F3  0852               	movf	___flge@ff2+2,w
  7320     08F4  1C03               	skipc
  7321     08F5  0F52               	incfsz	___flge@ff2+2,w
  7322     08F6  28F8               	goto	u4393
  7323     08F7  28F9               	goto	u4394
  7324     08F8                     u4393:
  7325     08F8  02D6               	subwf	??___flge+2,f
  7326     08F9                     u4394:
  7327     08F9  0853               	movf	___flge@ff2+3,w
  7328     08FA  1C03               	skipc
  7329     08FB  0F53               	incfsz	___flge@ff2+3,w
  7330     08FC  28FE               	goto	u4395
  7331     08FD  28FF               	goto	u4396
  7332     08FE                     u4395:
  7333     08FE  02D7               	subwf	??___flge+3,f
  7334     08FF                     u4396:
  7335     08FF  0857               	movf	??___flge+3,w
  7336     0900  00D3               	movwf	___flge@ff2+3
  7337     0901  0856               	movf	??___flge+2,w
  7338     0902  00D2               	movwf	___flge@ff2+2
  7339     0903  0855               	movf	??___flge+1,w
  7340     0904  00D1               	movwf	___flge@ff2+1
  7341     0905  0854               	movf	??___flge,w
  7342     0906  00D0               	movwf	___flge@ff2
  7343     0907                     l624:
  7344     0907  3080               	movlw	128
  7345     0908  06CF               	xorwf	___flge@ff1+3,f
  7346     0909  3080               	movlw	128
  7347     090A  06D3               	xorwf	___flge@ff2+3,f
  7348     090B  0853               	movf	___flge@ff2+3,w
  7349     090C  024F               	subwf	___flge@ff1+3,w
  7350     090D  1D03               	skipz
  7351     090E  2919               	goto	u4405
  7352     090F  0852               	movf	___flge@ff2+2,w
  7353     0910  024E               	subwf	___flge@ff1+2,w
  7354     0911  1D03               	skipz
  7355     0912  2919               	goto	u4405
  7356     0913  0851               	movf	___flge@ff2+1,w
  7357     0914  024D               	subwf	___flge@ff1+1,w
  7358     0915  1D03               	skipz
  7359     0916  2919               	goto	u4405
  7360     0917  0850               	movf	___flge@ff2,w
  7361     0918  024C               	subwf	___flge@ff1,w
  7362     0919                     u4405:
  7363     0919  1803               	skipnc
  7364     091A  291C               	goto	u4401
  7365     091B  291D               	goto	u4400
  7366     091C                     u4401:
  7367     091C  291F               	goto	l3333
  7368     091D                     u4400:
  7369     091D                     l3331:
  7370     091D  1003               	clrc
  7371     091E  2920               	goto	l629
  7372     091F                     l3333:
  7373     091F  1403               	setc
  7374     0920                     l629:
  7375     0920  0008               	return
  7376     0921                     __end_of___flge:
  7377                           
  7378                           	psect	text15
  7379     164B                     __ptext15:	
  7380 ;; *************** function ___awmod *****************
  7381 ;; Defined at:
  7382 ;;		line 5 in file "/opt/microchip/xc8/v3.00/pic/sources/c99/common/awmod.c"
  7383 ;; Parameters:    Size  Location     Type
  7384 ;;  divisor         2    2[COMMON] int 
  7385 ;;  dividend        2    4[COMMON] int 
  7386 ;; Auto vars:     Size  Location     Type
  7387 ;;  sign            1    7[COMMON] unsigned char 
  7388 ;;  counter         1    6[COMMON] unsigned char 
  7389 ;; Return value:  Size  Location     Type
  7390 ;;                  2    2[COMMON] int 
  7391 ;; Registers used:
  7392 ;;		wreg, status,2, status,0
  7393 ;; Tracked objects:
  7394 ;;		On entry : 0/0
  7395 ;;		On exit  : 0/0
  7396 ;;		Unchanged: 0/0
  7397 ;; Data sizes:     COMMON   BANK0   BANK1   BANK3   BANK2
  7398 ;;      Params:         4       0       0       0       0
  7399 ;;      Locals:         2       0       0       0       0
  7400 ;;      Temps:          0       0       0       0       0
  7401 ;;      Totals:         6       0       0       0       0
  7402 ;;Total ram usage:        6 bytes
  7403 ;; Hardware stack levels used: 1
  7404 ;; Hardware stack levels required when called: 1
  7405 ;; This function calls:
  7406 ;;		Nothing
  7407 ;; This function is called by:
  7408 ;;		_water_level_screen
  7409 ;;		_run_program
  7410 ;; This function uses a non-reentrant model
  7411 ;;
  7412                           
  7413     164B                     ___awmod:	
  7414                           ;psect for function ___awmod
  7415                           
  7416     164B                     l3279:	
  7417                           ;incstack = 0
  7418                           ; Regs used in ___awmod: [wreg+status,2+status,0]
  7419                           
  7420     164B  01F7               	clrf	___awmod@sign
  7421     164C                     l3281:
  7422     164C  1FF5               	btfss	___awmod@dividend+1,7
  7423     164D  2E4F               	goto	u4251
  7424     164E  2E50               	goto	u4250
  7425     164F                     u4251:
  7426     164F  2E57               	goto	l3287
  7427     1650                     u4250:
  7428     1650                     l3283:
  7429     1650  09F4               	comf	___awmod@dividend,f
  7430     1651  09F5               	comf	___awmod@dividend+1,f
  7431     1652  0AF4               	incf	___awmod@dividend,f
  7432     1653  1903               	skipnz
  7433     1654  0AF5               	incf	___awmod@dividend+1,f
  7434     1655                     l3285:
  7435     1655  3001               	movlw	1
  7436     1656  00F7               	movwf	___awmod@sign
  7437     1657                     l3287:
  7438     1657  1FF3               	btfss	___awmod@divisor+1,7
  7439     1658  2E5A               	goto	u4261
  7440     1659  2E5B               	goto	u4260
  7441     165A                     u4261:
  7442     165A  2E60               	goto	l3291
  7443     165B                     u4260:
  7444     165B                     l3289:
  7445     165B  09F2               	comf	___awmod@divisor,f
  7446     165C  09F3               	comf	___awmod@divisor+1,f
  7447     165D  0AF2               	incf	___awmod@divisor,f
  7448     165E  1903               	skipnz
  7449     165F  0AF3               	incf	___awmod@divisor+1,f
  7450     1660                     l3291:
  7451     1660  0872               	movf	___awmod@divisor,w
  7452     1661  0473               	iorwf	___awmod@divisor+1,w
  7453     1662  1903               	btfsc	3,2
  7454     1663  2E65               	goto	u4271
  7455     1664  2E66               	goto	u4270
  7456     1665                     u4271:
  7457     1665  2E93               	goto	l3309
  7458     1666                     u4270:
  7459     1666                     l3293:
  7460     1666  3001               	movlw	1
  7461     1667  00F6               	movwf	___awmod@counter
  7462     1668  2E72               	goto	l3299
  7463     1669                     l3295:
  7464     1669  3001               	movlw	1
  7465     166A                     u4285:
  7466     166A  1003               	clrc
  7467     166B  0DF2               	rlf	___awmod@divisor,f
  7468     166C  0DF3               	rlf	___awmod@divisor+1,f
  7469     166D  3EFF               	addlw	-1
  7470     166E  1D03               	skipz
  7471     166F  2E6A               	goto	u4285
  7472     1670                     l3297:
  7473     1670  3001               	movlw	1
  7474     1671  07F6               	addwf	___awmod@counter,f
  7475     1672                     l3299:
  7476     1672  1FF3               	btfss	___awmod@divisor+1,7
  7477     1673  2E75               	goto	u4291
  7478     1674  2E76               	goto	u4290
  7479     1675                     u4291:
  7480     1675  2E69               	goto	l3295
  7481     1676                     u4290:
  7482     1676                     l3301:
  7483     1676  0873               	movf	___awmod@divisor+1,w
  7484     1677  0275               	subwf	___awmod@dividend+1,w
  7485     1678  1D03               	skipz
  7486     1679  2E7C               	goto	u4305
  7487     167A  0872               	movf	___awmod@divisor,w
  7488     167B  0274               	subwf	___awmod@dividend,w
  7489     167C                     u4305:
  7490     167C  1C03               	skipc
  7491     167D  2E7F               	goto	u4301
  7492     167E  2E80               	goto	u4300
  7493     167F                     u4301:
  7494     167F  2E86               	goto	l3305
  7495     1680                     u4300:
  7496     1680                     l3303:
  7497     1680  0872               	movf	___awmod@divisor,w
  7498     1681  02F4               	subwf	___awmod@dividend,f
  7499     1682  0873               	movf	___awmod@divisor+1,w
  7500     1683  1C03               	skipc
  7501     1684  03F5               	decf	___awmod@dividend+1,f
  7502     1685  02F5               	subwf	___awmod@dividend+1,f
  7503     1686                     l3305:
  7504     1686  3001               	movlw	1
  7505     1687                     u4315:
  7506     1687  1003               	clrc
  7507     1688  0CF3               	rrf	___awmod@divisor+1,f
  7508     1689  0CF2               	rrf	___awmod@divisor,f
  7509     168A  3EFF               	addlw	-1
  7510     168B  1D03               	skipz
  7511     168C  2E87               	goto	u4315
  7512     168D                     l3307:
  7513     168D  3001               	movlw	1
  7514     168E  02F6               	subwf	___awmod@counter,f
  7515     168F  1D03               	btfss	3,2
  7516     1690  2E92               	goto	u4321
  7517     1691  2E93               	goto	u4320
  7518     1692                     u4321:
  7519     1692  2E76               	goto	l3301
  7520     1693                     u4320:
  7521     1693                     l3309:
  7522     1693  0877               	movf	___awmod@sign,w
  7523     1694  1903               	btfsc	3,2
  7524     1695  2E97               	goto	u4331
  7525     1696  2E98               	goto	u4330
  7526     1697                     u4331:
  7527     1697  2E9D               	goto	l3313
  7528     1698                     u4330:
  7529     1698                     l3311:
  7530     1698  09F4               	comf	___awmod@dividend,f
  7531     1699  09F5               	comf	___awmod@dividend+1,f
  7532     169A  0AF4               	incf	___awmod@dividend,f
  7533     169B  1903               	skipnz
  7534     169C  0AF5               	incf	___awmod@dividend+1,f
  7535     169D                     l3313:
  7536     169D  0875               	movf	___awmod@dividend+1,w
  7537     169E  00F3               	movwf	?___awmod+1
  7538     169F  0874               	movf	___awmod@dividend,w
  7539     16A0  00F2               	movwf	?___awmod
  7540     16A1                     l609:
  7541     16A1  0008               	return
  7542     16A2                     __end_of___awmod:
  7543                           
  7544                           	psect	text16
  7545     1700                     __ptext16:	
  7546 ;; *************** function ___awdiv *****************
  7547 ;; Defined at:
  7548 ;;		line 5 in file "/opt/microchip/xc8/v3.00/pic/sources/c99/common/awdiv.c"
  7549 ;; Parameters:    Size  Location     Type
  7550 ;;  divisor         2    2[COMMON] int 
  7551 ;;  dividend        2    4[COMMON] int 
  7552 ;; Auto vars:     Size  Location     Type
  7553 ;;  quotient        2    2[BANK0 ] int 
  7554 ;;  sign            1    1[BANK0 ] unsigned char 
  7555 ;;  counter         1    0[BANK0 ] unsigned char 
  7556 ;; Return value:  Size  Location     Type
  7557 ;;                  2    2[COMMON] int 
  7558 ;; Registers used:
  7559 ;;		wreg, status,2, status,0
  7560 ;; Tracked objects:
  7561 ;;		On entry : 0/0
  7562 ;;		On exit  : 0/0
  7563 ;;		Unchanged: 0/0
  7564 ;; Data sizes:     COMMON   BANK0   BANK1   BANK3   BANK2
  7565 ;;      Params:         4       0       0       0       0
  7566 ;;      Locals:         0       4       0       0       0
  7567 ;;      Temps:          0       0       0       0       0
  7568 ;;      Totals:         4       4       0       0       0
  7569 ;;Total ram usage:        8 bytes
  7570 ;; Hardware stack levels used: 1
  7571 ;; Hardware stack levels required when called: 1
  7572 ;; This function calls:
  7573 ;;		Nothing
  7574 ;; This function is called by:
  7575 ;;		_run_program
  7576 ;; This function uses a non-reentrant model
  7577 ;;
  7578                           
  7579     1700                     ___awdiv:	
  7580                           ;psect for function ___awdiv
  7581                           
  7582     1700                     l4029:	
  7583                           ;incstack = 0
  7584                           ; Regs used in ___awdiv: [wreg+status,2+status,0]
  7585                           
  7586     1700  1283               	bcf	3,5	;RP0=0, select bank0
  7587     1701  1303               	bcf	3,6	;RP1=0, select bank0
  7588     1702  01A1               	clrf	___awdiv@sign
  7589     1703                     l4031:
  7590     1703  1FF3               	btfss	___awdiv@divisor+1,7
  7591     1704  2F06               	goto	u5451
  7592     1705  2F07               	goto	u5450
  7593     1706                     u5451:
  7594     1706  2F0E               	goto	l4037
  7595     1707                     u5450:
  7596     1707                     l4033:
  7597     1707  09F2               	comf	___awdiv@divisor,f
  7598     1708  09F3               	comf	___awdiv@divisor+1,f
  7599     1709  0AF2               	incf	___awdiv@divisor,f
  7600     170A  1903               	skipnz
  7601     170B  0AF3               	incf	___awdiv@divisor+1,f
  7602     170C                     l4035:
  7603     170C  3001               	movlw	1
  7604     170D  00A1               	movwf	___awdiv@sign
  7605     170E                     l4037:
  7606     170E  1FF5               	btfss	___awdiv@dividend+1,7
  7607     170F  2F11               	goto	u5461
  7608     1710  2F12               	goto	u5460
  7609     1711                     u5461:
  7610     1711  2F19               	goto	l4043
  7611     1712                     u5460:
  7612     1712                     l4039:
  7613     1712  09F4               	comf	___awdiv@dividend,f
  7614     1713  09F5               	comf	___awdiv@dividend+1,f
  7615     1714  0AF4               	incf	___awdiv@dividend,f
  7616     1715  1903               	skipnz
  7617     1716  0AF5               	incf	___awdiv@dividend+1,f
  7618     1717                     l4041:
  7619     1717  3001               	movlw	1
  7620     1718  06A1               	xorwf	___awdiv@sign,f
  7621     1719                     l4043:
  7622     1719  01A2               	clrf	___awdiv@quotient
  7623     171A  01A3               	clrf	___awdiv@quotient+1
  7624     171B                     l4045:
  7625     171B  0872               	movf	___awdiv@divisor,w
  7626     171C  0473               	iorwf	___awdiv@divisor+1,w
  7627     171D  1903               	btfsc	3,2
  7628     171E  2F20               	goto	u5471
  7629     171F  2F21               	goto	u5470
  7630     1720                     u5471:
  7631     1720  2F56               	goto	l4065
  7632     1721                     u5470:
  7633     1721                     l4047:
  7634     1721  3001               	movlw	1
  7635     1722  00A0               	movwf	___awdiv@counter
  7636     1723  2F2D               	goto	l4053
  7637     1724                     l4049:
  7638     1724  3001               	movlw	1
  7639     1725                     u5485:
  7640     1725  1003               	clrc
  7641     1726  0DF2               	rlf	___awdiv@divisor,f
  7642     1727  0DF3               	rlf	___awdiv@divisor+1,f
  7643     1728  3EFF               	addlw	-1
  7644     1729  1D03               	skipz
  7645     172A  2F25               	goto	u5485
  7646     172B                     l4051:
  7647     172B  3001               	movlw	1
  7648     172C  07A0               	addwf	___awdiv@counter,f
  7649     172D                     l4053:
  7650     172D  1FF3               	btfss	___awdiv@divisor+1,7
  7651     172E  2F30               	goto	u5491
  7652     172F  2F31               	goto	u5490
  7653     1730                     u5491:
  7654     1730  2F24               	goto	l4049
  7655     1731                     u5490:
  7656     1731                     l4055:
  7657     1731  3001               	movlw	1
  7658     1732                     u5505:
  7659     1732  1003               	clrc
  7660     1733  0DA2               	rlf	___awdiv@quotient,f
  7661     1734  0DA3               	rlf	___awdiv@quotient+1,f
  7662     1735  3EFF               	addlw	-1
  7663     1736  1D03               	skipz
  7664     1737  2F32               	goto	u5505
  7665     1738  0873               	movf	___awdiv@divisor+1,w
  7666     1739  0275               	subwf	___awdiv@dividend+1,w
  7667     173A  1D03               	skipz
  7668     173B  2F3E               	goto	u5515
  7669     173C  0872               	movf	___awdiv@divisor,w
  7670     173D  0274               	subwf	___awdiv@dividend,w
  7671     173E                     u5515:
  7672     173E  1C03               	skipc
  7673     173F  2F41               	goto	u5511
  7674     1740  2F42               	goto	u5510
  7675     1741                     u5511:
  7676     1741  2F49               	goto	l4061
  7677     1742                     u5510:
  7678     1742                     l4057:
  7679     1742  0872               	movf	___awdiv@divisor,w
  7680     1743  02F4               	subwf	___awdiv@dividend,f
  7681     1744  0873               	movf	___awdiv@divisor+1,w
  7682     1745  1C03               	skipc
  7683     1746  03F5               	decf	___awdiv@dividend+1,f
  7684     1747  02F5               	subwf	___awdiv@dividend+1,f
  7685     1748                     l4059:
  7686     1748  1422               	bsf	___awdiv@quotient,0
  7687     1749                     l4061:
  7688     1749  3001               	movlw	1
  7689     174A                     u5525:
  7690     174A  1003               	clrc
  7691     174B  0CF3               	rrf	___awdiv@divisor+1,f
  7692     174C  0CF2               	rrf	___awdiv@divisor,f
  7693     174D  3EFF               	addlw	-1
  7694     174E  1D03               	skipz
  7695     174F  2F4A               	goto	u5525
  7696     1750                     l4063:
  7697     1750  3001               	movlw	1
  7698     1751  02A0               	subwf	___awdiv@counter,f
  7699     1752  1D03               	btfss	3,2
  7700     1753  2F55               	goto	u5531
  7701     1754  2F56               	goto	u5530
  7702     1755                     u5531:
  7703     1755  2F31               	goto	l4055
  7704     1756                     u5530:
  7705     1756                     l4065:
  7706     1756  0821               	movf	___awdiv@sign,w
  7707     1757  1903               	btfsc	3,2
  7708     1758  2F5A               	goto	u5541
  7709     1759  2F5B               	goto	u5540
  7710     175A                     u5541:
  7711     175A  2F60               	goto	l4069
  7712     175B                     u5540:
  7713     175B                     l4067:
  7714     175B  09A2               	comf	___awdiv@quotient,f
  7715     175C  09A3               	comf	___awdiv@quotient+1,f
  7716     175D  0AA2               	incf	___awdiv@quotient,f
  7717     175E  1903               	skipnz
  7718     175F  0AA3               	incf	___awdiv@quotient+1,f
  7719     1760                     l4069:
  7720     1760  0823               	movf	___awdiv@quotient+1,w
  7721     1761  00F3               	movwf	?___awdiv+1
  7722     1762  0822               	movf	___awdiv@quotient,w
  7723     1763  00F2               	movwf	?___awdiv
  7724     1764                     l596:
  7725     1764  0008               	return
  7726     1765                     __end_of___awdiv:
  7727                           
  7728                           	psect	text17
  7729     15A5                     __ptext17:	
  7730 ;; *************** function _read_digital_keypad *****************
  7731 ;; Defined at:
  7732 ;;		line 9 in file "digital_keypad.c"
  7733 ;; Parameters:    Size  Location     Type
  7734 ;;  mode            1    wreg     unsigned char 
  7735 ;; Auto vars:     Size  Location     Type
  7736 ;;  mode            1    0[COMMON] unsigned char 
  7737 ;;  key             1    2[COMMON] unsigned char 
  7738 ;; Return value:  Size  Location     Type
  7739 ;;                  1    wreg      unsigned char 
  7740 ;; Registers used:
  7741 ;;		wreg, status,2, status,0
  7742 ;; Tracked objects:
  7743 ;;		On entry : 0/0
  7744 ;;		On exit  : 0/0
  7745 ;;		Unchanged: 0/0
  7746 ;; Data sizes:     COMMON   BANK0   BANK1   BANK3   BANK2
  7747 ;;      Params:         0       0       0       0       0
  7748 ;;      Locals:         1       0       0       0       0
  7749 ;;      Temps:          0       0       0       0       0
  7750 ;;      Totals:         1       0       0       0       0
  7751 ;;Total ram usage:        1 bytes
  7752 ;; Hardware stack levels used: 1
  7753 ;; Hardware stack levels required when called: 1
  7754 ;; This function calls:
  7755 ;;		Nothing
  7756 ;; This function is called by:
  7757 ;;		_main
  7758 ;; This function uses a non-reentrant model
  7759 ;;
  7760                           
  7761     15A5                     _read_digital_keypad:	
  7762                           ;psect for function _read_digital_keypad
  7763                           
  7764     15A5                     l3579:	
  7765                           ;incstack = 0
  7766                           ; Regs used in _read_digital_keypad: [wreg+status,2+status,0]
  7767                           
  7768                           
  7769                           ;digital_keypad.c: 10:     static unsigned char once = 1;;digital_keypad.c: 11:     stat
      +                          ic unsigned char longpressed = 1;;digital_keypad.c: 12:     static unsigned char pre_key
      +                          ;;digital_keypad.c: 13:     unsigned char key = PORTB & 0x3F;
  7770     15A5  1283               	bcf	3,5	;RP0=0, select bank0
  7771     15A6  1303               	bcf	3,6	;RP1=0, select bank0
  7772     15A7  0806               	movf	6,w	;volatile
  7773     15A8  00F2               	movwf	read_digital_keypad@key
  7774     15A9                     l3581:
  7775     15A9  303F               	movlw	63
  7776     15AA  05F2               	andwf	read_digital_keypad@key,f
  7777     15AB                     l3583:
  7778                           
  7779                           ;digital_keypad.c: 15:     if (key != 0x3F && once) {
  7780     15AB  303F               	movlw	63
  7781     15AC  0672               	xorwf	read_digital_keypad@key,w
  7782     15AD  1903               	btfsc	3,2
  7783     15AE  2DB0               	goto	u5021
  7784     15AF  2DB1               	goto	u5020
  7785     15B0                     u5021:
  7786     15B0  2DBB               	goto	l3591
  7787     15B1                     u5020:
  7788     15B1                     l3585:
  7789     15B1  087B               	movf	read_digital_keypad@once,w
  7790     15B2  1903               	btfsc	3,2
  7791     15B3  2DB5               	goto	u5031
  7792     15B4  2DB6               	goto	u5030
  7793     15B5                     u5031:
  7794     15B5  2DBB               	goto	l3591
  7795     15B6                     u5030:
  7796     15B6                     l3587:
  7797                           
  7798                           ;digital_keypad.c: 16:         once = 0;
  7799     15B6  01FB               	clrf	read_digital_keypad@once
  7800                           
  7801                           ;digital_keypad.c: 17:         longpressed = 0;
  7802     15B7  01EA               	clrf	read_digital_keypad@longpressed
  7803     15B8                     l3589:
  7804                           
  7805                           ;digital_keypad.c: 18:          pre_key = key;
  7806     15B8  0872               	movf	read_digital_keypad@key,w
  7807     15B9  00E9               	movwf	read_digital_keypad@pre_key
  7808                           
  7809                           ;digital_keypad.c: 19:     } else if (key == 0x3F && !once) {
  7810     15BA  2DF3               	goto	l3621
  7811     15BB                     l3591:
  7812     15BB  303F               	movlw	63
  7813     15BC  0672               	xorwf	read_digital_keypad@key,w
  7814     15BD  1D03               	btfss	3,2
  7815     15BE  2DC0               	goto	u5041
  7816     15BF  2DC1               	goto	u5040
  7817     15C0                     u5041:
  7818     15C0  2DD0               	goto	l3603
  7819     15C1                     u5040:
  7820     15C1                     l3593:
  7821     15C1  087B               	movf	read_digital_keypad@once,w
  7822     15C2  1D03               	btfss	3,2
  7823     15C3  2DC5               	goto	u5051
  7824     15C4  2DC6               	goto	u5050
  7825     15C5                     u5051:
  7826     15C5  2DD0               	goto	l3603
  7827     15C6                     u5050:
  7828     15C6                     l3595:
  7829                           
  7830                           ;digital_keypad.c: 20:         once = 1;
  7831     15C6  3001               	movlw	1
  7832     15C7  00FB               	movwf	read_digital_keypad@once
  7833     15C8                     l3597:
  7834                           
  7835                           ;digital_keypad.c: 21:         if (longpressed < 30)
  7836     15C8  301E               	movlw	30
  7837     15C9  026A               	subwf	read_digital_keypad@longpressed,w
  7838     15CA  1803               	skipnc
  7839     15CB  2DCD               	goto	u5061
  7840     15CC  2DCE               	goto	u5060
  7841     15CD                     u5061:
  7842     15CD  2DF3               	goto	l3621
  7843     15CE                     u5060:
  7844     15CE                     l3599:
  7845                           
  7846                           ;digital_keypad.c: 22:             return pre_key;
  7847     15CE  0869               	movf	read_digital_keypad@pre_key,w
  7848     15CF  2DF4               	goto	l129
  7849     15D0                     l3603:
  7850     15D0  087B               	movf	read_digital_keypad@once,w
  7851     15D1  1D03               	btfss	3,2
  7852     15D2  2DD4               	goto	u5071
  7853     15D3  2DD5               	goto	u5070
  7854     15D4                     u5071:
  7855     15D4  2DDE               	goto	l3609
  7856     15D5                     u5070:
  7857     15D5                     l3605:
  7858     15D5  301F               	movlw	31
  7859     15D6  026A               	subwf	read_digital_keypad@longpressed,w
  7860     15D7  1803               	skipnc
  7861     15D8  2DDA               	goto	u5081
  7862     15D9  2DDB               	goto	u5080
  7863     15DA                     u5081:
  7864     15DA  2DDE               	goto	l3609
  7865     15DB                     u5080:
  7866     15DB                     l3607:
  7867                           
  7868                           ;digital_keypad.c: 24:         longpressed++;
  7869     15DB  3001               	movlw	1
  7870     15DC  07EA               	addwf	read_digital_keypad@longpressed,f
  7871                           
  7872                           ;digital_keypad.c: 25:     } else if (!once && (longpressed == 31) && (key == 0x37))
  7873     15DD  2DF3               	goto	l3621
  7874     15DE                     l3609:
  7875     15DE  087B               	movf	read_digital_keypad@once,w
  7876     15DF  1D03               	btfss	3,2
  7877     15E0  2DE2               	goto	u5091
  7878     15E1  2DE3               	goto	u5090
  7879     15E2                     u5091:
  7880     15E2  2DF3               	goto	l130
  7881     15E3                     u5090:
  7882     15E3                     l3611:
  7883     15E3  301F               	movlw	31
  7884     15E4  066A               	xorwf	read_digital_keypad@longpressed,w
  7885     15E5  1D03               	btfss	3,2
  7886     15E6  2DE8               	goto	u5101
  7887     15E7  2DE9               	goto	u5100
  7888     15E8                     u5101:
  7889     15E8  2DF3               	goto	l130
  7890     15E9                     u5100:
  7891     15E9                     l3613:
  7892     15E9  3037               	movlw	55
  7893     15EA  0672               	xorwf	read_digital_keypad@key,w
  7894     15EB  1D03               	btfss	3,2
  7895     15EC  2DEE               	goto	u5111
  7896     15ED  2DEF               	goto	u5110
  7897     15EE                     u5111:
  7898     15EE  2DF3               	goto	l130
  7899     15EF                     u5110:
  7900     15EF                     l3615:
  7901                           
  7902                           ;digital_keypad.c: 26:     {;digital_keypad.c: 27:         longpressed++;
  7903     15EF  3001               	movlw	1
  7904     15F0  07EA               	addwf	read_digital_keypad@longpressed,f
  7905     15F1                     l3617:
  7906                           
  7907                           ;digital_keypad.c: 28:         return 0X99;
  7908     15F1  3099               	movlw	153
  7909     15F2  2DF4               	goto	l129
  7910     15F3                     l130:
  7911     15F3                     l3621:
  7912                           
  7913                           ;digital_keypad.c: 53:     return 0x3F;
  7914     15F3  303F               	movlw	63
  7915     15F4                     l129:
  7916     15F4  0008               	return
  7917     15F5                     __end_of_read_digital_keypad:
  7918                           
  7919                           	psect	text18
  7920     080E                     __ptext18:	
  7921 ;; *************** function _power_on_screen *****************
  7922 ;; Defined at:
  7923 ;;		line 17 in file "washing_machine_function_def.c"
  7924 ;; Parameters:    Size  Location     Type
  7925 ;;		None
  7926 ;; Auto vars:     Size  Location     Type
  7927 ;;  i               1    9[BANK0 ] unsigned char 
  7928 ;;  i               1    8[BANK0 ] unsigned char 
  7929 ;; Return value:  Size  Location     Type
  7930 ;;                  1    wreg      void 
  7931 ;; Registers used:
  7932 ;;		wreg, fsr0l, fsr0h, status,2, status,0, btemp+1, pclath, cstack
  7933 ;; Tracked objects:
  7934 ;;		On entry : 0/0
  7935 ;;		On exit  : 0/0
  7936 ;;		Unchanged: 0/0
  7937 ;; Data sizes:     COMMON   BANK0   BANK1   BANK3   BANK2
  7938 ;;      Params:         0       0       0       0       0
  7939 ;;      Locals:         0       2       0       0       0
  7940 ;;      Temps:          0       3       0       0       0
  7941 ;;      Totals:         0       5       0       0       0
  7942 ;;Total ram usage:        5 bytes
  7943 ;; Hardware stack levels used: 1
  7944 ;; Hardware stack levels required when called: 4
  7945 ;; This function calls:
  7946 ;;		_clcd_print
  7947 ;;		_clcd_putch
  7948 ;; This function is called by:
  7949 ;;		_main
  7950 ;; This function uses a non-reentrant model
  7951 ;;
  7952                           
  7953     080E                     _power_on_screen:	
  7954                           ;psect for function _power_on_screen
  7955                           
  7956     080E                     l3625:	
  7957                           ;incstack = 0
  7958                           ; Regs used in _power_on_screen: [wreg-fsr0h+status,2+status,0+btemp+1+pclath+cstack]
  7959                           
  7960                           
  7961                           ;washing_machine_function_def.c: 19:     for (unsigned char i = 0; i < 16; i++) {
  7962     080E  1283               	bcf	3,5	;RP0=0, select bank0
  7963     080F  1303               	bcf	3,6	;RP1=0, select bank0
  7964     0810  01A8               	clrf	power_on_screen@i
  7965     0811                     l3631:
  7966                           
  7967                           ;washing_machine_function_def.c: 20:         clcd_putch(0XFF, (0x80 + i));
  7968     0811  0828               	movf	power_on_screen@i,w
  7969     0812  3E80               	addlw	128
  7970     0813  00F8               	movwf	clcd_putch@addr
  7971     0814  30FF               	movlw	255
  7972     0815  160A  118A  243C  120A  158A  	fcall	_clcd_putch
  7973     081A                     l3633:
  7974                           
  7975                           ;washing_machine_function_def.c: 21:         _delay((unsigned long)((100)*(20000000/4000
      +                          .0)));
  7976     081A  3003               	movlw	3
  7977     081B  1283               	bcf	3,5	;RP0=0, select bank0
  7978     081C  1303               	bcf	3,6	;RP1=0, select bank0
  7979     081D  00A7               	movwf	??_power_on_screen+2
  7980     081E  308A               	movlw	138
  7981     081F  00A6               	movwf	??_power_on_screen+1
  7982     0820  3055               	movlw	85
  7983     0821  00A5               	movwf	??_power_on_screen
  7984     0822                     u5807:
  7985     0822  0BA5               	decfsz	??_power_on_screen,f
  7986     0823  2822               	goto	u5807
  7987     0824  0BA6               	decfsz	??_power_on_screen+1,f
  7988     0825  2822               	goto	u5807
  7989     0826  0BA7               	decfsz	??_power_on_screen+2,f
  7990     0827  2822               	goto	u5807
  7991     0828                     l3635:
  7992                           
  7993                           ;washing_machine_function_def.c: 22:     }
  7994     0828  3001               	movlw	1
  7995     0829  1283               	bcf	3,5	;RP0=0, select bank0
  7996     082A  1303               	bcf	3,6	;RP1=0, select bank0
  7997     082B  07A8               	addwf	power_on_screen@i,f
  7998     082C                     l3637:
  7999     082C  3010               	movlw	16
  8000     082D  0228               	subwf	power_on_screen@i,w
  8001     082E  1C03               	skipc
  8002     082F  2831               	goto	u5121
  8003     0830  2832               	goto	u5120
  8004     0831                     u5121:
  8005     0831  2811               	goto	l3631
  8006     0832                     u5120:
  8007     0832                     l3639:
  8008                           
  8009                           ;washing_machine_function_def.c: 24:     clcd_print("Powering on ", (0xC0 + 3));
  8010     0832  306E               	movlw	low (STR_24| (0+32768))
  8011     0833  00A0               	movwf	clcd_print@str
  8012     0834  3090               	movlw	high (STR_24| (0+32768))
  8013     0835  00A1               	movwf	clcd_print@str+1
  8014     0836  30C3               	movlw	195
  8015     0837  00A2               	movwf	clcd_print@addr
  8016     0838  160A  118A  2525  120A  158A  	fcall	_clcd_print
  8017                           
  8018                           ;washing_machine_function_def.c: 25:     clcd_print("Washing Machine", (0x90 + 1));
  8019     083D  3042               	movlw	low (STR_3| (0+32768))
  8020     083E  1283               	bcf	3,5	;RP0=0, select bank0
  8021     083F  1303               	bcf	3,6	;RP1=0, select bank0
  8022     0840  00A0               	movwf	clcd_print@str
  8023     0841  3090               	movlw	high (STR_3| (0+32768))
  8024     0842  00A1               	movwf	clcd_print@str+1
  8025     0843  3091               	movlw	145
  8026     0844  00A2               	movwf	clcd_print@addr
  8027     0845  160A  118A  2525  120A  158A  	fcall	_clcd_print
  8028     084A                     l3641:
  8029                           
  8030                           ;washing_machine_function_def.c: 27:     for (unsigned char i = 0; i < 16; i++) {
  8031     084A  1283               	bcf	3,5	;RP0=0, select bank0
  8032     084B  1303               	bcf	3,6	;RP1=0, select bank0
  8033     084C  01A9               	clrf	power_on_screen@i_196
  8034     084D                     l3647:
  8035                           
  8036                           ;washing_machine_function_def.c: 28:         clcd_putch(0XFF, (0xD0 + i));
  8037     084D  0829               	movf	power_on_screen@i_196,w
  8038     084E  3ED0               	addlw	208
  8039     084F  00F8               	movwf	clcd_putch@addr
  8040     0850  30FF               	movlw	255
  8041     0851  160A  118A  243C  120A  158A  	fcall	_clcd_putch
  8042     0856                     l3649:
  8043                           
  8044                           ;washing_machine_function_def.c: 29:         _delay((unsigned long)((100)*(20000000/4000
      +                          .0)));
  8045     0856  3003               	movlw	3
  8046     0857  1283               	bcf	3,5	;RP0=0, select bank0
  8047     0858  1303               	bcf	3,6	;RP1=0, select bank0
  8048     0859  00A7               	movwf	??_power_on_screen+2
  8049     085A  308A               	movlw	138
  8050     085B  00A6               	movwf	??_power_on_screen+1
  8051     085C  3055               	movlw	85
  8052     085D  00A5               	movwf	??_power_on_screen
  8053     085E                     u5817:
  8054     085E  0BA5               	decfsz	??_power_on_screen,f
  8055     085F  285E               	goto	u5817
  8056     0860  0BA6               	decfsz	??_power_on_screen+1,f
  8057     0861  285E               	goto	u5817
  8058     0862  0BA7               	decfsz	??_power_on_screen+2,f
  8059     0863  285E               	goto	u5817
  8060     0864                     l3651:
  8061                           
  8062                           ;washing_machine_function_def.c: 30:     }
  8063     0864  3001               	movlw	1
  8064     0865  1283               	bcf	3,5	;RP0=0, select bank0
  8065     0866  1303               	bcf	3,6	;RP1=0, select bank0
  8066     0867  07A9               	addwf	power_on_screen@i_196,f
  8067     0868                     l3653:
  8068     0868  3010               	movlw	16
  8069     0869  0229               	subwf	power_on_screen@i_196,w
  8070     086A  1C03               	skipc
  8071     086B  286D               	goto	u5131
  8072     086C  286E               	goto	u5130
  8073     086D                     u5131:
  8074     086D  284D               	goto	l3647
  8075     086E                     u5130:
  8076     086E                     l3655:
  8077                           
  8078                           ;washing_machine_function_def.c: 31:     _delay((unsigned long)((2000)*(20000000/4000.0)
      +                          ));
  8079     086E  3033               	movlw	51
  8080     086F  1283               	bcf	3,5	;RP0=0, select bank0
  8081     0870  1303               	bcf	3,6	;RP1=0, select bank0
  8082     0871  00A7               	movwf	??_power_on_screen+2
  8083     0872  30BB               	movlw	187
  8084     0873  00A6               	movwf	??_power_on_screen+1
  8085     0874  30DF               	movlw	223
  8086     0875  00A5               	movwf	??_power_on_screen
  8087     0876                     u5827:
  8088     0876  0BA5               	decfsz	??_power_on_screen,f
  8089     0877  2876               	goto	u5827
  8090     0878  0BA6               	decfsz	??_power_on_screen+1,f
  8091     0879  2876               	goto	u5827
  8092     087A  0BA7               	decfsz	??_power_on_screen+2,f
  8093     087B  2876               	goto	u5827
  8094     087C                     l214:
  8095     087C  0008               	return
  8096     087D                     __end_of_power_on_screen:
  8097                           
  8098                           	psect	text19
  8099     143C                     __ptext19:	
  8100 ;; *************** function _clcd_putch *****************
  8101 ;; Defined at:
  8102 ;;		line 57 in file "clcd.c"
  8103 ;; Parameters:    Size  Location     Type
  8104 ;;  data            1    wreg     const unsigned char 
  8105 ;;  addr            1    8[COMMON] unsigned char 
  8106 ;; Auto vars:     Size  Location     Type
  8107 ;;  data            1    4[BANK0 ] const unsigned char 
  8108 ;; Return value:  Size  Location     Type
  8109 ;;                  1    wreg      void 
  8110 ;; Registers used:
  8111 ;;		wreg, status,2, status,0, pclath, cstack
  8112 ;; Tracked objects:
  8113 ;;		On entry : 0/0
  8114 ;;		On exit  : 0/0
  8115 ;;		Unchanged: 0/0
  8116 ;; Data sizes:     COMMON   BANK0   BANK1   BANK3   BANK2
  8117 ;;      Params:         1       0       0       0       0
  8118 ;;      Locals:         0       1       0       0       0
  8119 ;;      Temps:          0       0       0       0       0
  8120 ;;      Totals:         1       1       0       0       0
  8121 ;;Total ram usage:        2 bytes
  8122 ;; Hardware stack levels used: 1
  8123 ;; Hardware stack levels required when called: 3
  8124 ;; This function calls:
  8125 ;;		_clcd_write
  8126 ;; This function is called by:
  8127 ;;		_power_on_screen
  8128 ;;		_washing_program_display
  8129 ;;		_water_level_screen
  8130 ;;		_run_program
  8131 ;; This function uses a non-reentrant model
  8132 ;;
  8133                           
  8134     143C                     _clcd_putch:	
  8135                           ;psect for function _clcd_putch
  8136                           
  8137                           
  8138                           ;incstack = 0
  8139                           ; Regs used in _clcd_putch: [wreg+status,2+status,0+pclath+cstack]
  8140                           ;clcd_putch@data stored from wreg
  8141     143C  1283               	bcf	3,5	;RP0=0, select bank0
  8142     143D  1303               	bcf	3,6	;RP1=0, select bank0
  8143     143E  00A4               	movwf	clcd_putch@data
  8144     143F                     l3201:
  8145                           
  8146                           ;clcd.c: 57: void clcd_putch(const char data, unsigned char addr);clcd.c: 58: {;clcd.c: 
      +                          59:     clcd_write(addr, 0);
  8147     143F  01F4               	clrf	clcd_write@mode
  8148     1440  0878               	movf	clcd_putch@addr,w
  8149     1441  160A  118A  24D3  160A  118A  	fcall	_clcd_write
  8150                           
  8151                           ;clcd.c: 60:     clcd_write(data, 1);
  8152     1446  01F4               	clrf	clcd_write@mode
  8153     1447  0AF4               	incf	clcd_write@mode,f
  8154     1448  1283               	bcf	3,5	;RP0=0, select bank0
  8155     1449  1303               	bcf	3,6	;RP1=0, select bank0
  8156     144A  0824               	movf	clcd_putch@data,w
  8157     144B  160A  118A  24D3  160A  118A  	fcall	_clcd_write
  8158     1450                     l103:
  8159     1450  0008               	return
  8160     1451                     __end_of_clcd_putch:
  8161                           
  8162                           	psect	text20
  8163     1525                     __ptext20:	
  8164 ;; *************** function _clcd_print *****************
  8165 ;; Defined at:
  8166 ;;		line 63 in file "clcd.c"
  8167 ;; Parameters:    Size  Location     Type
  8168 ;;  str             2    0[BANK0 ] PTR const unsigned char 
  8169 ;;		 -> STR_46(16), STR_45(5), STR_44(9), STR_43(18), 
  8170 ;;		 -> STR_42(13), STR_41(14), STR_40(16), STR_39(5), 
  8171 ;;		 -> STR_38(6), STR_37(6), STR_36(6), STR_35(6), 
  8172 ;;		 -> STR_34(6), STR_33(5), STR_32(16), STR_31(5), 
  8173 ;;		 -> STR_30(9), STR_29(6), STR_28(6), STR_27(13), 
  8174 ;;		 -> STR_26(16), STR_25(16), STR_24(13), STR_23(4), 
  8175 ;;		 -> STR_22(5), STR_21(7), STR_20(4), STR_19(5), 
  8176 ;;		 -> STR_18(11), STR_17(10), STR_16(9), STR_15(10), 
  8177 ;;		 -> STR_14(11), STR_13(8), STR_12(12), STR_11(11), 
  8178 ;;		 -> STR_10(7), STR_9(10), STR_8(6), STR_7(6), 
  8179 ;;		 -> STR_6(10), STR_5(11), STR_4(13), STR_3(16), 
  8180 ;;		 -> STR_2(9), STR_1(14), 
  8181 ;;  addr            1    2[BANK0 ] unsigned char 
  8182 ;; Auto vars:     Size  Location     Type
  8183 ;;		None
  8184 ;; Return value:  Size  Location     Type
  8185 ;;                  1    wreg      void 
  8186 ;; Registers used:
  8187 ;;		wreg, fsr0l, fsr0h, status,2, status,0, btemp+1, pclath, cstack
  8188 ;; Tracked objects:
  8189 ;;		On entry : 0/0
  8190 ;;		On exit  : 0/0
  8191 ;;		Unchanged: 0/0
  8192 ;; Data sizes:     COMMON   BANK0   BANK1   BANK3   BANK2
  8193 ;;      Params:         0       3       0       0       0
  8194 ;;      Locals:         0       0       0       0       0
  8195 ;;      Temps:          0       0       0       0       0
  8196 ;;      Totals:         0       3       0       0       0
  8197 ;;Total ram usage:        3 bytes
  8198 ;; Hardware stack levels used: 1
  8199 ;; Hardware stack levels required when called: 3
  8200 ;; This function calls:
  8201 ;;		_clcd_write
  8202 ;; This function is called by:
  8203 ;;		_main
  8204 ;;		_power_on_screen
  8205 ;;		_washing_program_display
  8206 ;;		_water_level_screen
  8207 ;;		_run_program
  8208 ;;		_door_status_check
  8209 ;; This function uses a non-reentrant model
  8210 ;;
  8211                           
  8212     1525                     _clcd_print:	
  8213                           ;psect for function _clcd_print
  8214                           
  8215     1525                     l2951:	
  8216                           ;incstack = 0
  8217                           ; Regs used in _clcd_print: [wreg-fsr0h+status,2+status,0+btemp+1+pclath+cstack]
  8218                           
  8219                           
  8220                           ;clcd.c: 63: void clcd_print(const char *str, unsigned char addr);clcd.c: 64: {;clcd.c: 
      +                          65:     clcd_write(addr, 0);
  8221     1525  01F4               	clrf	clcd_write@mode
  8222     1526  1283               	bcf	3,5	;RP0=0, select bank0
  8223     1527  1303               	bcf	3,6	;RP1=0, select bank0
  8224     1528  0822               	movf	clcd_print@addr,w
  8225     1529  160A  118A  24D3  160A  118A  	fcall	_clcd_write
  8226                           
  8227                           ;clcd.c: 67:     while (*str != '\0')
  8228     152E  2D47               	goto	l2957
  8229     152F                     l2953:
  8230                           
  8231                           ;clcd.c: 68:     {;clcd.c: 69:         clcd_write(*str, 1);
  8232     152F  01F4               	clrf	clcd_write@mode
  8233     1530  0AF4               	incf	clcd_write@mode,f
  8234     1531  0821               	movf	clcd_print@str+1,w
  8235     1532  00FF               	movwf	btemp+1
  8236     1533  0820               	movf	clcd_print@str,w
  8237     1534  0084               	movwf	4
  8238     1535  160A  118A  2173  160A  118A  	fcall	stringtab
  8239     153A  160A  118A  24D3  160A  118A  	fcall	_clcd_write
  8240     153F                     l2955:
  8241                           
  8242                           ;clcd.c: 70:         str++;
  8243     153F  3001               	movlw	1
  8244     1540  1283               	bcf	3,5	;RP0=0, select bank0
  8245     1541  1303               	bcf	3,6	;RP1=0, select bank0
  8246     1542  07A0               	addwf	clcd_print@str,f
  8247     1543  1803               	skipnc
  8248     1544  0AA1               	incf	clcd_print@str+1,f
  8249     1545  3000               	movlw	0
  8250     1546  07A1               	addwf	clcd_print@str+1,f
  8251     1547                     l2957:
  8252                           
  8253                           ;clcd.c: 67:     while (*str != '\0')
  8254     1547  1283               	bcf	3,5	;RP0=0, select bank0
  8255     1548  1303               	bcf	3,6	;RP1=0, select bank0
  8256     1549  0821               	movf	clcd_print@str+1,w
  8257     154A  00FF               	movwf	btemp+1
  8258     154B  0820               	movf	clcd_print@str,w
  8259     154C  0084               	movwf	4
  8260     154D  160A  118A  2173  160A  118A  	fcall	stringtab
  8261     1552  3A00               	xorlw	0
  8262     1553  1D03               	skipz
  8263     1554  2D56               	goto	u3591
  8264     1555  2D57               	goto	u3590
  8265     1556                     u3591:
  8266     1556  2D2F               	goto	l2953
  8267     1557                     u3590:
  8268     1557                     l109:
  8269     1557  0008               	return
  8270     1558                     __end_of_clcd_print:
  8271                           
  8272                           	psect	text21
  8273     07E3                     __ptext21:	
  8274 ;; *************** function _init_config *****************
  8275 ;; Defined at:
  8276 ;;		line 13 in file "main.c"
  8277 ;; Parameters:    Size  Location     Type
  8278 ;;		None
  8279 ;; Auto vars:     Size  Location     Type
  8280 ;;		None
  8281 ;; Return value:  Size  Location     Type
  8282 ;;                  1    wreg      void 
  8283 ;; Registers used:
  8284 ;;		wreg, status,2, status,0, pclath, cstack
  8285 ;; Tracked objects:
  8286 ;;		On entry : 0/0
  8287 ;;		On exit  : 0/0
  8288 ;;		Unchanged: 0/0
  8289 ;; Data sizes:     COMMON   BANK0   BANK1   BANK3   BANK2
  8290 ;;      Params:         0       0       0       0       0
  8291 ;;      Locals:         0       0       0       0       0
  8292 ;;      Temps:          0       0       0       0       0
  8293 ;;      Totals:         0       0       0       0       0
  8294 ;;Total ram usage:        0 bytes
  8295 ;; Hardware stack levels used: 1
  8296 ;; Hardware stack levels required when called: 5
  8297 ;; This function calls:
  8298 ;;		_init_clcd
  8299 ;;		_init_digital_keypad
  8300 ;;		_init_timer2
  8301 ;; This function is called by:
  8302 ;;		_main
  8303 ;; This function uses a non-reentrant model
  8304 ;;
  8305                           
  8306     07E3                     _init_config:	
  8307                           ;psect for function _init_config
  8308                           
  8309     07E3                     l3563:	
  8310                           ;incstack = 0
  8311                           ; Regs used in _init_config: [wreg+status,2+status,0+pclath+cstack]
  8312                           
  8313                           
  8314                           ;main.c: 15:     RC2 = 0;
  8315     07E3  120A  158A  2002  120A  118A  	fcall	_init_clcd
  8316                           
  8317                           ;main.c: 17: 
  8318     07E8  160A  118A  2409  120A  118A  	fcall	_init_digital_keypad
  8319     07ED                     l3565:
  8320                           
  8321                           ;main.c: 19: 
  8322     07ED  160A  118A  240F  120A  118A  	fcall	_init_timer2
  8323     07F2                     l3567:
  8324                           
  8325                           ;main.c: 21:     init_config();
  8326     07F2  178B               	bsf	11,7	;volatile
  8327     07F3                     l3569:
  8328                           
  8329                           ;main.c: 22:     unsigned char key;
  8330     07F3  170B               	bsf	11,6	;volatile
  8331     07F4                     l3571:
  8332                           
  8333                           ;main.c: 23:     clcd_print("press key5 to", (0x80 + 0));
  8334     07F4  1683               	bsf	3,5	;RP0=1, select bank1
  8335     07F5  1303               	bcf	3,6	;RP1=0, select bank1
  8336     07F6  1087               	bcf	7,1	;volatile
  8337     07F7                     l3573:
  8338                           
  8339                           ;main.c: 24:     clcd_print("power on", (0xC0 + 4));
  8340     07F7  1107               	bcf	7,2	;volatile
  8341     07F8                     l3575:
  8342                           
  8343                           ;main.c: 25:     clcd_print("Washing Machine", (0x90 + 0));
  8344     07F8  1283               	bcf	3,5	;RP0=0, select bank0
  8345     07F9  1303               	bcf	3,6	;RP1=0, select bank0
  8346     07FA  1087               	bcf	7,1	;volatile
  8347     07FB                     l3577:
  8348                           
  8349                           ;main.c: 26:     while (read_digital_keypad(1) != 0x2F)
  8350     07FB  1107               	bcf	7,2	;volatile
  8351     07FC                     l43:
  8352     07FC  0008               	return
  8353     07FD                     __end_of_init_config:
  8354                           
  8355                           	psect	text22
  8356     140F                     __ptext22:	
  8357 ;; *************** function _init_timer2 *****************
  8358 ;; Defined at:
  8359 ;;		line 3 in file "timers.c"
  8360 ;; Parameters:    Size  Location     Type
  8361 ;;		None
  8362 ;; Auto vars:     Size  Location     Type
  8363 ;;		None
  8364 ;; Return value:  Size  Location     Type
  8365 ;;                  1    wreg      void 
  8366 ;; Registers used:
  8367 ;;		None
  8368 ;; Tracked objects:
  8369 ;;		On entry : 0/0
  8370 ;;		On exit  : 0/0
  8371 ;;		Unchanged: 0/0
  8372 ;; Data sizes:     COMMON   BANK0   BANK1   BANK3   BANK2
  8373 ;;      Params:         0       0       0       0       0
  8374 ;;      Locals:         0       0       0       0       0
  8375 ;;      Temps:          0       0       0       0       0
  8376 ;;      Totals:         0       0       0       0       0
  8377 ;;Total ram usage:        0 bytes
  8378 ;; Hardware stack levels used: 1
  8379 ;; Hardware stack levels required when called: 1
  8380 ;; This function calls:
  8381 ;;		Nothing
  8382 ;; This function is called by:
  8383 ;;		_init_config
  8384 ;; This function uses a non-reentrant model
  8385 ;;
  8386                           
  8387     140F                     _init_timer2:	
  8388                           ;psect for function _init_timer2
  8389                           
  8390     140F                     l3199:	
  8391                           ;incstack = 0
  8392                           ; Regs used in _init_timer2: []
  8393                           
  8394                           
  8395                           ;timers.c: 6:       PR2 = 250;
  8396     140F  30FA               	movlw	250
  8397     1410  1683               	bsf	3,5	;RP0=1, select bank1
  8398     1411  1303               	bcf	3,6	;RP1=0, select bank1
  8399     1412  0092               	movwf	18	;volatile
  8400                           
  8401                           ;timers.c: 10:       TMR2IE = 1;
  8402     1413  148C               	bsf	12,1	;volatile
  8403                           
  8404                           ;timers.c: 14:       TMR2ON = 0;
  8405     1414  1283               	bcf	3,5	;RP0=0, select bank0
  8406     1415  1303               	bcf	3,6	;RP1=0, select bank0
  8407     1416  1112               	bcf	18,2	;volatile
  8408     1417                     l142:
  8409     1417  0008               	return
  8410     1418                     __end_of_init_timer2:
  8411                           
  8412                           	psect	text23
  8413     1409                     __ptext23:	
  8414 ;; *************** function _init_digital_keypad *****************
  8415 ;; Defined at:
  8416 ;;		line 4 in file "digital_keypad.c"
  8417 ;; Parameters:    Size  Location     Type
  8418 ;;		None
  8419 ;; Auto vars:     Size  Location     Type
  8420 ;;		None
  8421 ;; Return value:  Size  Location     Type
  8422 ;;                  1    wreg      void 
  8423 ;; Registers used:
  8424 ;;		wreg, status,2
  8425 ;; Tracked objects:
  8426 ;;		On entry : 0/0
  8427 ;;		On exit  : 0/0
  8428 ;;		Unchanged: 0/0
  8429 ;; Data sizes:     COMMON   BANK0   BANK1   BANK3   BANK2
  8430 ;;      Params:         0       0       0       0       0
  8431 ;;      Locals:         0       0       0       0       0
  8432 ;;      Temps:          0       0       0       0       0
  8433 ;;      Totals:         0       0       0       0       0
  8434 ;;Total ram usage:        0 bytes
  8435 ;; Hardware stack levels used: 1
  8436 ;; Hardware stack levels required when called: 1
  8437 ;; This function calls:
  8438 ;;		Nothing
  8439 ;; This function is called by:
  8440 ;;		_init_config
  8441 ;; This function uses a non-reentrant model
  8442 ;;
  8443                           
  8444     1409                     _init_digital_keypad:	
  8445                           ;psect for function _init_digital_keypad
  8446                           
  8447     1409                     l3197:	
  8448                           ;incstack = 0
  8449                           ; Regs used in _init_digital_keypad: [wreg+status,2]
  8450                           
  8451                           
  8452                           ;digital_keypad.c: 6:     TRISB = TRISB | 0x3F;
  8453     1409  1683               	bsf	3,5	;RP0=1, select bank1
  8454     140A  1303               	bcf	3,6	;RP1=0, select bank1
  8455     140B  0806               	movf	6,w	;volatile
  8456     140C  383F               	iorlw	63
  8457     140D  0086               	movwf	6	;volatile
  8458     140E                     l116:
  8459     140E  0008               	return
  8460     140F                     __end_of_init_digital_keypad:
  8461                           
  8462                           	psect	text24
  8463     0802                     __ptext24:	
  8464 ;; *************** function _init_clcd *****************
  8465 ;; Defined at:
  8466 ;;		line 45 in file "clcd.c"
  8467 ;; Parameters:    Size  Location     Type
  8468 ;;		None
  8469 ;; Auto vars:     Size  Location     Type
  8470 ;;		None
  8471 ;; Return value:  Size  Location     Type
  8472 ;;                  1    wreg      void 
  8473 ;; Registers used:
  8474 ;;		wreg, status,2, status,0, pclath, cstack
  8475 ;; Tracked objects:
  8476 ;;		On entry : 0/0
  8477 ;;		On exit  : 0/0
  8478 ;;		Unchanged: 0/0
  8479 ;; Data sizes:     COMMON   BANK0   BANK1   BANK3   BANK2
  8480 ;;      Params:         0       0       0       0       0
  8481 ;;      Locals:         0       0       0       0       0
  8482 ;;      Temps:          0       0       0       0       0
  8483 ;;      Totals:         0       0       0       0       0
  8484 ;;Total ram usage:        0 bytes
  8485 ;; Hardware stack levels used: 1
  8486 ;; Hardware stack levels required when called: 4
  8487 ;; This function calls:
  8488 ;;		_init_display_controller
  8489 ;; This function is called by:
  8490 ;;		_init_config
  8491 ;; This function uses a non-reentrant model
  8492 ;;
  8493                           
  8494     0802                     _init_clcd:	
  8495                           ;psect for function _init_clcd
  8496                           
  8497     0802                     l3189:	
  8498                           ;incstack = 0
  8499                           ; Regs used in _init_clcd: [wreg+status,2+status,0+pclath+cstack]
  8500                           
  8501                           
  8502                           ;clcd.c: 48:     TRISD &= 0x0F;
  8503     0802  300F               	movlw	15
  8504     0803  1683               	bsf	3,5	;RP0=1, select bank1
  8505     0804  1303               	bcf	3,6	;RP1=0, select bank1
  8506     0805  0588               	andwf	8,f	;volatile
  8507     0806                     l3191:
  8508                           
  8509                           ;clcd.c: 51:     TRISE2 = 0;
  8510     0806  1109               	bcf	9,2	;volatile
  8511     0807                     l3193:
  8512                           
  8513                           ;clcd.c: 52:     TRISE1 = 0;
  8514     0807  1089               	bcf	9,1	;volatile
  8515     0808                     l3195:
  8516                           
  8517                           ;clcd.c: 54:     init_display_controller();
  8518     0808  160A  118A  25F5  120A  158A  	fcall	_init_display_controller
  8519     080D                     l100:
  8520     080D  0008               	return
  8521     080E                     __end_of_init_clcd:
  8522                           
  8523                           	psect	text25
  8524     15F5                     __ptext25:	
  8525 ;; *************** function _init_display_controller *****************
  8526 ;; Defined at:
  8527 ;;		line 25 in file "clcd.c"
  8528 ;; Parameters:    Size  Location     Type
  8529 ;;		None
  8530 ;; Auto vars:     Size  Location     Type
  8531 ;;		None
  8532 ;; Return value:  Size  Location     Type
  8533 ;;                  1    wreg      void 
  8534 ;; Registers used:
  8535 ;;		wreg, status,2, status,0, pclath, cstack
  8536 ;; Tracked objects:
  8537 ;;		On entry : 0/0
  8538 ;;		On exit  : 0/0
  8539 ;;		Unchanged: 0/0
  8540 ;; Data sizes:     COMMON   BANK0   BANK1   BANK3   BANK2
  8541 ;;      Params:         0       0       0       0       0
  8542 ;;      Locals:         0       0       0       0       0
  8543 ;;      Temps:          2       0       0       0       0
  8544 ;;      Totals:         2       0       0       0       0
  8545 ;;Total ram usage:        2 bytes
  8546 ;; Hardware stack levels used: 1
  8547 ;; Hardware stack levels required when called: 3
  8548 ;; This function calls:
  8549 ;;		_clcd_write
  8550 ;;		_send_nibble
  8551 ;; This function is called by:
  8552 ;;		_init_clcd
  8553 ;; This function uses a non-reentrant model
  8554 ;;
  8555                           
  8556     15F5                     _init_display_controller:	
  8557                           ;psect for function _init_display_controller
  8558                           
  8559     15F5                     l2963:	
  8560                           ;incstack = 0
  8561                           ; Regs used in _init_display_controller: [wreg+status,2+status,0+pclath+cstack]
  8562                           
  8563                           
  8564                           ;clcd.c: 27:     _delay((unsigned long)((20)*(20000000/4000.0)));
  8565     15F5  3082               	movlw	130
  8566     15F6  00F8               	movwf	??_init_display_controller+1
  8567     15F7  30DD               	movlw	221
  8568     15F8  00F7               	movwf	??_init_display_controller
  8569     15F9                     u5837:
  8570     15F9  0BF7               	decfsz	??_init_display_controller,f
  8571     15FA  2DF9               	goto	u5837
  8572     15FB  0BF8               	decfsz	??_init_display_controller+1,f
  8573     15FC  2DF9               	goto	u5837
  8574     15FD  2DFE               	nop2
  8575     15FE                     l2965:
  8576                           
  8577                           ;clcd.c: 30:     send_nibble(0x30);
  8578     15FE  3030               	movlw	48
  8579     15FF  160A  118A  2451  160A  118A  	fcall	_send_nibble
  8580     1604                     l2967:
  8581                           
  8582                           ;clcd.c: 31:     _delay((unsigned long)((5)*(20000000/4000.0)));
  8583     1604  3021               	movlw	33
  8584     1605  00F8               	movwf	??_init_display_controller+1
  8585     1606  3076               	movlw	118
  8586     1607  00F7               	movwf	??_init_display_controller
  8587     1608                     u5847:
  8588     1608  0BF7               	decfsz	??_init_display_controller,f
  8589     1609  2E08               	goto	u5847
  8590     160A  0BF8               	decfsz	??_init_display_controller+1,f
  8591     160B  2E08               	goto	u5847
  8592     160C  0000               	nop
  8593                           
  8594                           ;clcd.c: 32:     send_nibble(0x30);
  8595     160D  3030               	movlw	48
  8596     160E  160A  118A  2451  160A  118A  	fcall	_send_nibble
  8597     1613                     l2969:
  8598                           
  8599                           ;clcd.c: 33:     _delay((unsigned long)((100)*(20000000/4000000.0)));
  8600     1613  30A6               	movlw	166
  8601     1614  00F7               	movwf	??_init_display_controller
  8602     1615                     u5857:
  8603     1615  0BF7               	decfsz	??_init_display_controller,f
  8604     1616  2E15               	goto	u5857
  8605     1617  0000               	nop
  8606     1618                     l2971:
  8607                           
  8608                           ;clcd.c: 34:     send_nibble(0x30);
  8609     1618  3030               	movlw	48
  8610     1619  160A  118A  2451  160A  118A  	fcall	_send_nibble
  8611                           
  8612                           ;clcd.c: 35:     _delay((unsigned long)((100)*(20000000/4000000.0)));
  8613     161E  30A6               	movlw	166
  8614     161F  00F7               	movwf	??_init_display_controller
  8615     1620                     u5867:
  8616     1620  0BF7               	decfsz	??_init_display_controller,f
  8617     1621  2E20               	goto	u5867
  8618     1622  0000               	nop
  8619     1623                     l2973:
  8620                           
  8621                           ;clcd.c: 36:     send_nibble(0x20);
  8622     1623  3020               	movlw	32
  8623     1624  160A  118A  2451  160A  118A  	fcall	_send_nibble
  8624     1629                     l2975:
  8625                           
  8626                           ;clcd.c: 37:     _delay((unsigned long)((100)*(20000000/4000000.0)));
  8627     1629  30A6               	movlw	166
  8628     162A  00F7               	movwf	??_init_display_controller
  8629     162B                     u5877:
  8630     162B  0BF7               	decfsz	??_init_display_controller,f
  8631     162C  2E2B               	goto	u5877
  8632     162D  0000               	nop
  8633                           
  8634                           ;clcd.c: 39:     clcd_write(0x28, 0);
  8635     162E  01F4               	clrf	clcd_write@mode
  8636     162F  3028               	movlw	40
  8637     1630  160A  118A  24D3  160A  118A  	fcall	_clcd_write
  8638                           
  8639                           ;clcd.c: 40:     clcd_write(0x0C, 0);
  8640     1635  01F4               	clrf	clcd_write@mode
  8641     1636  300C               	movlw	12
  8642     1637  160A  118A  24D3  160A  118A  	fcall	_clcd_write
  8643                           
  8644                           ;clcd.c: 41:     clcd_write(0x01, 0);
  8645     163C  01F4               	clrf	clcd_write@mode
  8646     163D  3001               	movlw	1
  8647     163E  160A  118A  24D3  160A  118A  	fcall	_clcd_write
  8648                           
  8649                           ;clcd.c: 42:     clcd_write(0x06, 0);
  8650     1643  01F4               	clrf	clcd_write@mode
  8651     1644  3006               	movlw	6
  8652     1645  160A  118A  24D3  160A  118A  	fcall	_clcd_write
  8653     164A                     l97:
  8654     164A  0008               	return
  8655     164B                     __end_of_init_display_controller:
  8656                           
  8657                           	psect	text26
  8658     14D3                     __ptext26:	
  8659 ;; *************** function _clcd_write *****************
  8660 ;; Defined at:
  8661 ;;		line 15 in file "clcd.c"
  8662 ;; Parameters:    Size  Location     Type
  8663 ;;  byte            1    wreg     unsigned char 
  8664 ;;  mode            1    4[COMMON] unsigned char 
  8665 ;; Auto vars:     Size  Location     Type
  8666 ;;  byte            1    6[COMMON] unsigned char 
  8667 ;; Return value:  Size  Location     Type
  8668 ;;                  1    wreg      void 
  8669 ;; Registers used:
  8670 ;;		wreg, status,2, status,0, pclath, cstack
  8671 ;; Tracked objects:
  8672 ;;		On entry : 0/0
  8673 ;;		On exit  : 0/0
  8674 ;;		Unchanged: 0/0
  8675 ;; Data sizes:     COMMON   BANK0   BANK1   BANK3   BANK2
  8676 ;;      Params:         1       0       0       0       0
  8677 ;;      Locals:         1       0       0       0       0
  8678 ;;      Temps:          1       0       0       0       0
  8679 ;;      Totals:         3       0       0       0       0
  8680 ;;Total ram usage:        3 bytes
  8681 ;; Hardware stack levels used: 1
  8682 ;; Hardware stack levels required when called: 2
  8683 ;; This function calls:
  8684 ;;		_send_nibble
  8685 ;; This function is called by:
  8686 ;;		_init_display_controller
  8687 ;;		_clcd_putch
  8688 ;;		_clcd_print
  8689 ;;		_clear_screen
  8690 ;; This function uses a non-reentrant model
  8691 ;;
  8692                           
  8693     14D3                     _clcd_write:	
  8694                           ;psect for function _clcd_write
  8695                           
  8696                           
  8697                           ;incstack = 0
  8698                           ; Regs used in _clcd_write: [wreg+status,2+status,0+pclath+cstack]
  8699                           ;clcd_write@byte stored from wreg
  8700     14D3  00F6               	movwf	clcd_write@byte
  8701     14D4                     l2943:
  8702                           
  8703                           ;clcd.c: 15: void clcd_write(unsigned char byte, unsigned char mode);clcd.c: 16: {;clcd.
      +                          c: 17:     RE2 = (mode !=0);
  8704     14D4  0874               	movf	clcd_write@mode,w
  8705     14D5  1D03               	btfss	3,2
  8706     14D6  2CD8               	goto	u3561
  8707     14D7  2CDC               	goto	u3560
  8708     14D8                     u3561:
  8709     14D8  1283               	bcf	3,5	;RP0=0, select bank0
  8710     14D9  1303               	bcf	3,6	;RP1=0, select bank0
  8711     14DA  1509               	bsf	9,2	;volatile
  8712     14DB  2CDF               	goto	u3574
  8713     14DC                     u3560:
  8714     14DC  1283               	bcf	3,5	;RP0=0, select bank0
  8715     14DD  1303               	bcf	3,6	;RP1=0, select bank0
  8716     14DE  1109               	bcf	9,2	;volatile
  8717     14DF                     u3574:
  8718     14DF                     l2945:
  8719                           
  8720                           ;clcd.c: 19:     send_nibble(byte & 0xF0);
  8721     14DF  0876               	movf	clcd_write@byte,w
  8722     14E0  39F0               	andlw	240
  8723     14E1  160A  118A  2451  160A  118A  	fcall	_send_nibble
  8724     14E6                     l2947:
  8725                           
  8726                           ;clcd.c: 20:     send_nibble((byte << 4) & 0xF0);
  8727     14E6  0876               	movf	clcd_write@byte,w
  8728     14E7  00F5               	movwf	??_clcd_write
  8729     14E8  3003               	movlw	3
  8730     14E9                     u3585:
  8731     14E9  1003               	clrc
  8732     14EA  0DF5               	rlf	??_clcd_write,f
  8733     14EB  3EFF               	addlw	-1
  8734     14EC  1D03               	skipz
  8735     14ED  2CE9               	goto	u3585
  8736     14EE  1003               	clrc
  8737     14EF  0D75               	rlf	??_clcd_write,w
  8738     14F0  39F0               	andlw	240
  8739     14F1  160A  118A  2451  160A  118A  	fcall	_send_nibble
  8740     14F6                     l2949:
  8741                           
  8742                           ;clcd.c: 22:     _delay((unsigned long)((100)*(20000000/4000000.0)));
  8743     14F6  30A6               	movlw	166
  8744     14F7  00F5               	movwf	??_clcd_write
  8745     14F8                     u5887:
  8746     14F8  0BF5               	decfsz	??_clcd_write,f
  8747     14F9  2CF8               	goto	u5887
  8748     14FA  0000               	nop
  8749     14FB                     l94:
  8750     14FB  0008               	return
  8751     14FC                     __end_of_clcd_write:
  8752                           
  8753                           	psect	text27
  8754     1451                     __ptext27:	
  8755 ;; *************** function _send_nibble *****************
  8756 ;; Defined at:
  8757 ;;		line 5 in file "clcd.c"
  8758 ;; Parameters:    Size  Location     Type
  8759 ;;  nibble          1    wreg     unsigned char 
  8760 ;; Auto vars:     Size  Location     Type
  8761 ;;  nibble          1    3[COMMON] unsigned char 
  8762 ;; Return value:  Size  Location     Type
  8763 ;;                  1    wreg      void 
  8764 ;; Registers used:
  8765 ;;		wreg, status,2, status,0
  8766 ;; Tracked objects:
  8767 ;;		On entry : 0/0
  8768 ;;		On exit  : 0/0
  8769 ;;		Unchanged: 0/0
  8770 ;; Data sizes:     COMMON   BANK0   BANK1   BANK3   BANK2
  8771 ;;      Params:         0       0       0       0       0
  8772 ;;      Locals:         1       0       0       0       0
  8773 ;;      Temps:          1       0       0       0       0
  8774 ;;      Totals:         2       0       0       0       0
  8775 ;;Total ram usage:        2 bytes
  8776 ;; Hardware stack levels used: 1
  8777 ;; Hardware stack levels required when called: 1
  8778 ;; This function calls:
  8779 ;;		Nothing
  8780 ;; This function is called by:
  8781 ;;		_clcd_write
  8782 ;;		_init_display_controller
  8783 ;; This function uses a non-reentrant model
  8784 ;;
  8785                           
  8786     1451                     _send_nibble:	
  8787                           ;psect for function _send_nibble
  8788                           
  8789                           
  8790                           ;incstack = 0
  8791                           ; Regs used in _send_nibble: [wreg+status,2+status,0]
  8792                           ;send_nibble@nibble stored from wreg
  8793     1451  00F3               	movwf	send_nibble@nibble
  8794     1452                     l2933:
  8795                           
  8796                           ;clcd.c: 5: static void send_nibble(unsigned char nibble);clcd.c: 6: {;clcd.c: 7:     PO
      +                          RTD &= 0x0F;
  8797     1452  300F               	movlw	15
  8798     1453  1283               	bcf	3,5	;RP0=0, select bank0
  8799     1454  1303               	bcf	3,6	;RP1=0, select bank0
  8800     1455  0588               	andwf	8,f	;volatile
  8801                           
  8802                           ;clcd.c: 8:     PORTD |= (nibble & 0xF0);
  8803     1456  0873               	movf	send_nibble@nibble,w
  8804     1457  39F0               	andlw	240
  8805     1458  0488               	iorwf	8,f	;volatile
  8806     1459                     l2935:
  8807                           
  8808                           ;clcd.c: 9:     RE1 = 1;
  8809     1459  1489               	bsf	9,1	;volatile
  8810     145A                     l2937:
  8811                           
  8812                           ;clcd.c: 10:     _delay((unsigned long)((100)*(20000000/4000000.0)));
  8813     145A  30A6               	movlw	166
  8814     145B  00F2               	movwf	??_send_nibble
  8815     145C                     u5897:
  8816     145C  0BF2               	decfsz	??_send_nibble,f
  8817     145D  2C5C               	goto	u5897
  8818     145E  0000               	nop
  8819     145F                     l2939:
  8820                           
  8821                           ;clcd.c: 11:     RE1 = 0;
  8822     145F  1283               	bcf	3,5	;RP0=0, select bank0
  8823     1460  1303               	bcf	3,6	;RP1=0, select bank0
  8824     1461  1089               	bcf	9,1	;volatile
  8825     1462                     l2941:
  8826                           
  8827                           ;clcd.c: 12:     _delay((unsigned long)((100)*(20000000/4000000.0)));
  8828     1462  30A6               	movlw	166
  8829     1463  00F2               	movwf	??_send_nibble
  8830     1464                     u5907:
  8831     1464  0BF2               	decfsz	??_send_nibble,f
  8832     1465  2C64               	goto	u5907
  8833     1466  0000               	nop
  8834     1467                     l91:
  8835     1467  0008               	return
  8836     1468                     __end_of_send_nibble:
  8837                           
  8838                           	psect	text28
  8839     1558                     __ptext28:	
  8840 ;; *************** function _isr *****************
  8841 ;; Defined at:
  8842 ;;		line 4 in file "isr.c"
  8843 ;; Parameters:    Size  Location     Type
  8844 ;;		None
  8845 ;; Auto vars:     Size  Location     Type
  8846 ;;		None
  8847 ;; Return value:  Size  Location     Type
  8848 ;;                  1    wreg      void 
  8849 ;; Registers used:
  8850 ;;		wreg, status,2, status,0
  8851 ;; Tracked objects:
  8852 ;;		On entry : 0/0
  8853 ;;		On exit  : 0/0
  8854 ;;		Unchanged: 0/0
  8855 ;; Data sizes:     COMMON   BANK0   BANK1   BANK3   BANK2
  8856 ;;      Params:         0       0       0       0       0
  8857 ;;      Locals:         0       0       0       0       0
  8858 ;;      Temps:          2       0       0       0       0
  8859 ;;      Totals:         2       0       0       0       0
  8860 ;;Total ram usage:        2 bytes
  8861 ;; Hardware stack levels used: 1
  8862 ;; This function calls:
  8863 ;;		Nothing
  8864 ;; This function is called by:
  8865 ;;		Interrupt level 1
  8866 ;; This function uses a non-reentrant model
  8867 ;;
  8868                           
  8869     1558                     _isr:	
  8870                           ;psect for function _isr
  8871                           
  8872     1558                     i1l2913:
  8873                           
  8874                           ;isr.c: 6:     static unsigned long int count = 0 ;;isr.c: 7:     if(TMR2IF == 1)
  8875     1558  1283               	bcf	3,5	;RP0=0, select bank0
  8876     1559  1303               	bcf	3,6	;RP1=0, select bank0
  8877     155A  1C8C               	btfss	12,1	;volatile
  8878     155B  2D5D               	goto	u351_21
  8879     155C  2D5E               	goto	u351_20
  8880     155D                     u351_21:
  8881     155D  2D9E               	goto	i1l160
  8882     155E                     u351_20:
  8883     155E                     i1l2915:
  8884                           
  8885                           ;isr.c: 8:     {;isr.c: 9:         if( ++count == 20000)
  8886     155E  3001               	movlw	1
  8887     155F  1683               	bsf	3,5	;RP0=1, select bank1
  8888     1560  1303               	bcf	3,6	;RP1=0, select bank1
  8889     1561  07C2               	addwf	isr@count^(0+128),f
  8890     1562  3000               	movlw	0
  8891     1563  1803               	skipnc
  8892     1564  3001               	movlw	1
  8893     1565  07C3               	addwf	(isr@count+1)^(0+128),f
  8894     1566  3000               	movlw	0
  8895     1567  1803               	skipnc
  8896     1568  3001               	movlw	1
  8897     1569  07C4               	addwf	(isr@count+2)^(0+128),f
  8898     156A  3000               	movlw	0
  8899     156B  1803               	skipnc
  8900     156C  3001               	movlw	1
  8901     156D  07C5               	addwf	(isr@count+3)^(0+128),f
  8902     156E  3020               	movlw	32
  8903     156F  0642               	xorwf	isr@count^(0+128),w
  8904     1570  304E               	movlw	78
  8905     1571  1903               	skipnz
  8906     1572  0643               	xorwf	(isr@count+1)^(0+128),w
  8907     1573  0444               	iorwf	(isr@count+2)^(0+128),w
  8908     1574  0445               	iorwf	(isr@count+3)^(0+128),w
  8909     1575  1D03               	btfss	3,2
  8910     1576  2D78               	goto	u352_21
  8911     1577  2D79               	goto	u352_20
  8912     1578                     u352_21:
  8913     1578  2D9B               	goto	i1l2931
  8914     1579                     u352_20:
  8915     1579                     i1l2917:
  8916                           
  8917                           ;isr.c: 10:         {;isr.c: 11:             if (sec != 0)
  8918     1579  1283               	bcf	3,5	;RP0=0, select bank0
  8919     157A  1303               	bcf	3,6	;RP1=0, select bank0
  8920     157B  0868               	movf	_sec,w
  8921     157C  1903               	btfsc	3,2
  8922     157D  2D7F               	goto	u353_21
  8923     157E  2D80               	goto	u353_20
  8924     157F                     u353_21:
  8925     157F  2D83               	goto	i1l2921
  8926     1580                     u353_20:
  8927     1580                     i1l2919:
  8928                           
  8929                           ;isr.c: 12:                 sec--;
  8930     1580  3001               	movlw	1
  8931     1581  02E8               	subwf	_sec,f
  8932     1582  2D91               	goto	i1l2929
  8933     1583                     i1l2921:
  8934     1583  0868               	movf	_sec,w
  8935     1584  1D03               	btfss	3,2
  8936     1585  2D87               	goto	u354_21
  8937     1586  2D88               	goto	u354_20
  8938     1587                     u354_21:
  8939     1587  2D91               	goto	i1l2929
  8940     1588                     u354_20:
  8941     1588                     i1l2923:
  8942     1588  0867               	movf	_min,w
  8943     1589  1903               	btfsc	3,2
  8944     158A  2D8C               	goto	u355_21
  8945     158B  2D8D               	goto	u355_20
  8946     158C                     u355_21:
  8947     158C  2D91               	goto	i1l2929
  8948     158D                     u355_20:
  8949     158D                     i1l2925:
  8950                           
  8951                           ;isr.c: 14:             {;isr.c: 15:                 min--;
  8952     158D  3001               	movlw	1
  8953     158E  02E7               	subwf	_min,f
  8954     158F                     i1l2927:
  8955                           
  8956                           ;isr.c: 16:                 sec = 60;
  8957     158F  303C               	movlw	60
  8958     1590  00E8               	movwf	_sec
  8959     1591                     i1l2929:
  8960                           
  8961                           ;isr.c: 18:             count = 0 ;
  8962     1591  3000               	movlw	0
  8963     1592  1683               	bsf	3,5	;RP0=1, select bank1
  8964     1593  1303               	bcf	3,6	;RP1=0, select bank1
  8965     1594  00C5               	movwf	(isr@count+3)^(0+128)
  8966     1595  3000               	movlw	0
  8967     1596  00C4               	movwf	(isr@count+2)^(0+128)
  8968     1597  3000               	movlw	0
  8969     1598  00C3               	movwf	(isr@count+1)^(0+128)
  8970     1599  3000               	movlw	0
  8971     159A  00C2               	movwf	isr@count^(0+128)
  8972     159B                     i1l2931:
  8973                           
  8974                           ;isr.c: 21:         TMR2IF = 0;
  8975     159B  1283               	bcf	3,5	;RP0=0, select bank0
  8976     159C  1303               	bcf	3,6	;RP1=0, select bank0
  8977     159D  108C               	bcf	12,1	;volatile
  8978     159E                     i1l160:
  8979     159E  0871               	movf	??_isr+1,w
  8980     159F  008A               	movwf	10
  8981     15A0  0E70               	swapf	??_isr,w
  8982     15A1  0083               	movwf	3
  8983     15A2  0EFE               	swapf	btemp,f
  8984     15A3  0E7E               	swapf	btemp,w
  8985     15A4  0009               	retfie
  8986     15A5                     __end_of_isr:
  8987     0002                     ___latbits      equ	2
  8988     007E                     btemp           set	126	;btemp
  8989     007E                     wtemp0          set	126
  8990                           
  8991                           	psect	intentry
  8992     0004                     __pintentry:	
  8993                           ;incstack = 0
  8994                           ; Regs used in _isr: [wreg+status,2+status,0]
  8995                           
  8996     0004                     interrupt_function:
  8997     007E                     saved_w         set	btemp
  8998     0004  00FE               	movwf	btemp
  8999     0005  0E03               	swapf	3,w
  9000     0006  00F0               	movwf	??_isr
  9001     0007  080A               	movf	10,w
  9002     0008  00F1               	movwf	??_isr+1
  9003     0009  160A  118A  2D58   	ljmp	_isr
  9004                           
  9005                           	psect	config
  9006                           
  9007                           ;Config register CONFIG @ 0x2007
  9008                           ;	Oscillator Selection bits
  9009                           ;	FOSC = 0x3, unprogrammed default
  9010                           ;	Watchdog Timer Enable bit
  9011                           ;	WDTE = OFF, WDT disabled
  9012                           ;	Power-up Timer Enable bit
  9013                           ;	PWRTE = 0x1, unprogrammed default
  9014                           ;	Brown-out Reset Enable bit
  9015                           ;	BOREN = 0x1, unprogrammed default
  9016                           ;	Low-Voltage (Single-Supply) In-Circuit Serial Programming Enable bit
  9017                           ;	LVP = 0x1, unprogrammed default
  9018                           ;	Data EEPROM Memory Code Protection bit
  9019                           ;	CPD = 0x1, unprogrammed default
  9020                           ;	Flash Program Memory Write Enable bits
  9021                           ;	WRT = 0x3, unprogrammed default
  9022                           ;	In-Circuit Debugger Mode bit
  9023                           ;	DEBUG = 0x1, unprogrammed default
  9024                           ;	Flash Program Memory Code Protection bit
  9025                           ;	CP = 0x1, unprogrammed default
  9026     2007                     	org	8199
  9027     2007  3FFB               	dw	16379

Data Sizes:
    Strings     371
    Constant    0
    Data        38
    BSS         19
    Persistent  0
    Stack       0

Auto Spaces:
    Space          Size  Autos    Used
    COMMON           14      9      12
    BANK0            80     67      77
    BANK1            80      7      51
    BANK3            96      0       0
    BANK2            96      0       0

Pointer List with Targets:

    clcd_print@str	PTR const unsigned char  size(2) Largest target is 18
		 -> STR_1(CODE[14]), STR_10(CODE[7]), STR_11(CODE[11]), STR_12(CODE[12]), 
		 -> STR_13(CODE[8]), STR_14(CODE[11]), STR_15(CODE[10]), STR_16(CODE[9]), 
		 -> STR_17(CODE[10]), STR_18(CODE[11]), STR_19(CODE[5]), STR_2(CODE[9]), 
		 -> STR_20(CODE[4]), STR_21(CODE[7]), STR_22(CODE[5]), STR_23(CODE[4]), 
		 -> STR_24(CODE[13]), STR_25(CODE[16]), STR_26(CODE[16]), STR_27(CODE[13]), 
		 -> STR_28(CODE[6]), STR_29(CODE[6]), STR_3(CODE[16]), STR_30(CODE[9]), 
		 -> STR_31(CODE[5]), STR_32(CODE[16]), STR_33(CODE[5]), STR_34(CODE[6]), 
		 -> STR_35(CODE[6]), STR_36(CODE[6]), STR_37(CODE[6]), STR_38(CODE[6]), 
		 -> STR_39(CODE[5]), STR_4(CODE[13]), STR_40(CODE[16]), STR_41(CODE[14]), 
		 -> STR_42(CODE[13]), STR_43(CODE[18]), STR_44(CODE[9]), STR_45(CODE[5]), 
		 -> STR_46(CODE[16]), STR_5(CODE[11]), STR_6(CODE[10]), STR_7(CODE[6]), 
		 -> STR_8(CODE[6]), STR_9(CODE[10]), 

    washing_program	PTR unsigned char [12] size(2) Largest target is 12
		 -> STR_10(CODE[7]), STR_11(CODE[11]), STR_12(CODE[12]), STR_13(CODE[8]), 
		 -> STR_14(CODE[11]), STR_15(CODE[10]), STR_16(CODE[9]), STR_17(CODE[10]), 
		 -> STR_18(CODE[11]), STR_7(CODE[6]), STR_8(CODE[6]), STR_9(CODE[10]), 

    water_level	PTR unsigned char [5] size(2) Largest target is 7
		 -> STR_19(CODE[5]), STR_20(CODE[4]), STR_21(CODE[7]), STR_22(CODE[5]), 
		 -> STR_23(CODE[4]), 


Critical Paths under _main in COMMON

    _main->_clear_screen
    _water_level_screen->_clcd_putch
    _water_level_screen->_clear_screen
    _washing_program_display->_clcd_putch
    _washing_program_display->_clear_screen
    _run_program->_clcd_putch
    _run_program->_clear_screen
    _door_status_check->_clear_screen
    _clear_screen->_clcd_write
    ___fltol->___xxtofl
    ___flsub->___fladd
    ___flsub->___xxtofl
    ___flmul->__Umul8_16
    ___flmul->___xxtofl
    ___flge->___xxtofl
    _power_on_screen->_clcd_putch
    _clcd_putch->___awmod
    _clcd_print->___awmod
    _init_clcd->_init_display_controller
    _init_display_controller->_clcd_write
    _clcd_write->_send_nibble

Critical Paths under _isr in COMMON

    None.

Critical Paths under _main in BANK0

    _main->_run_program
    _water_level_screen->_clcd_putch
    _washing_program_display->_clcd_putch
    _run_program->___flge
    _door_status_check->_clcd_print
    ___fltol->___flmul
    ___flsub->___flmul
    ___flmul->___xxtofl
    ___flge->___flsub
    _power_on_screen->_clcd_putch
    _clcd_putch->___awdiv

Critical Paths under _isr in BANK0

    None.

Critical Paths under _main in BANK1

    None.

Critical Paths under _isr in BANK1

    None.

Critical Paths under _main in BANK3

    None.

Critical Paths under _isr in BANK3

    None.

Critical Paths under _main in BANK2

    None.

Critical Paths under _isr in BANK2

    None.

Call Graph Tables:

 ---------------------------------------------------------------------------------
 (Depth) Function   	        Calls       Base Space   Used Autos Params    Refs
 ---------------------------------------------------------------------------------
 (0) _main                                                11    11      0   14353
                                             63 BANK0      4     4      0
                                              0 BANK1      7     7      0
                         _clcd_print
                       _clear_screen
                        _init_config
                    _power_on_screen
                _read_digital_keypad
                        _run_program
                           _set_time
            _washing_program_display
                 _water_level_screen
 ---------------------------------------------------------------------------------
 (1) _water_level_screen                                   3     3      0    1565
                                              5 BANK0      3     3      0
                            ___awmod
                         _clcd_print
                         _clcd_putch
                       _clear_screen
 ---------------------------------------------------------------------------------
 (1) _washing_program_display                              3     3      0    1112
                                              5 BANK0      3     3      0
                         _clcd_print
                         _clcd_putch
                       _clear_screen
 ---------------------------------------------------------------------------------
 (1) _set_time                                             0     0      0       0
 ---------------------------------------------------------------------------------
 (1) _run_program                                          7     7      0    9052
                                             56 BANK0      7     7      0
                            ___awdiv
                            ___awmod
                             ___flge
                            ___flmul
                            ___flsub
                            ___fltol
                             ___wmul
                           ___xxtofl
                         _clcd_print
                         _clcd_putch
                       _clear_screen
                  _door_status_check
 ---------------------------------------------------------------------------------
 (2) _door_status_check                                    0     0      0     746
                         _clcd_print
                       _clear_screen
 ---------------------------------------------------------------------------------
 (2) _clear_screen                                         2     2      0     199
                                              7 COMMON     2     2      0
                         _clcd_write
 ---------------------------------------------------------------------------------
 (2) ___xxtofl                                            14    10      4     526
                                              2 COMMON     4     0      4
                                              0 BANK0     10    10      0
 ---------------------------------------------------------------------------------
 (2) ___wmul                                               6     2      4       8
                                              2 COMMON     6     2      4
 ---------------------------------------------------------------------------------
 (2) ___fltol                                             10     6      4     346
                                              6 COMMON     2     2      0
                                             36 BANK0      8     4      4
                            ___flmul (ARG)
                           ___xxtofl (ARG)
 ---------------------------------------------------------------------------------
 (2) ___flsub                                              8     0      8    3025
                                             36 BANK0      8     0      8
                            ___fladd
                            ___flmul (ARG)
                           ___xxtofl (ARG)
 ---------------------------------------------------------------------------------
 (3) ___fladd                                             20    12      8    2954
                                              2 COMMON     4     4      0
                                              0 BANK0     16     8      8
 ---------------------------------------------------------------------------------
 (2) ___flmul                                             26    18      8    2452
                                             10 BANK0     26    18      8
                          __Umul8_16
                           ___xxtofl (ARG)
 ---------------------------------------------------------------------------------
 (3) __Umul8_16                                            9     7      2     232
                                              2 COMMON     4     2      2
                                              0 BANK0      5     5      0
 ---------------------------------------------------------------------------------
 (2) ___flge                                              12     4      8     272
                                             44 BANK0     12     4      8
                            ___flmul (ARG)
                            ___flsub (ARG)
                           ___xxtofl (ARG)
 ---------------------------------------------------------------------------------
 (2) ___awmod                                              6     2      4     453
                                              2 COMMON     6     2      4
 ---------------------------------------------------------------------------------
 (2) ___awdiv                                              8     4      4      90
                                              2 COMMON     4     0      4
                                              0 BANK0      4     4      0
 ---------------------------------------------------------------------------------
 (1) _read_digital_keypad                                  2     2      0     130
                                              2 COMMON     1     1      0
 ---------------------------------------------------------------------------------
 (1) _power_on_screen                                      5     5      0    1064
                                              5 BANK0      5     5      0
                         _clcd_print
                         _clcd_putch
 ---------------------------------------------------------------------------------
 (2) _clcd_putch                                           2     1      1     319
                                              8 COMMON     1     0      1
                                              4 BANK0      1     1      0
                            ___awdiv (ARG)
                            ___awmod (ARG)
                         _clcd_write
 ---------------------------------------------------------------------------------
 (2) _clcd_print                                           3     0      3     547
                                              0 BANK0      3     0      3
                            ___awmod (ARG)
                         _clcd_write
 ---------------------------------------------------------------------------------
 (1) _init_config                                          0     0      0     246
                          _init_clcd
                _init_digital_keypad
                        _init_timer2
 ---------------------------------------------------------------------------------
 (2) _init_timer2                                          0     0      0       0
 ---------------------------------------------------------------------------------
 (2) _init_digital_keypad                                  0     0      0       0
 ---------------------------------------------------------------------------------
 (2) _init_clcd                                            0     0      0     246
            _init_display_controller
 ---------------------------------------------------------------------------------
 (3) _init_display_controller                              2     2      0     246
                                              7 COMMON     2     2      0
                         _clcd_write
                        _send_nibble
 ---------------------------------------------------------------------------------
 (3) _clcd_write                                           3     2      1     199
                                              4 COMMON     3     2      1
                        _send_nibble
 ---------------------------------------------------------------------------------
 (4) _send_nibble                                          2     2      0      47
                                              2 COMMON     2     2      0
 ---------------------------------------------------------------------------------
 Estimated maximum stack depth 4
 ---------------------------------------------------------------------------------
 (Depth) Function   	        Calls       Base Space   Used Autos Params    Refs
 ---------------------------------------------------------------------------------
 (6) _isr                                                  2     2      0       0
                                              0 COMMON     2     2      0
 ---------------------------------------------------------------------------------
 Estimated maximum stack depth 6
 ---------------------------------------------------------------------------------

 Call Graph Graphs:

 _main (ROOT)
   _clcd_print
     ___awmod (ARG)
     _clcd_write (ARG)
       _send_nibble
   _clear_screen
     _clcd_write
   _init_config
     _init_clcd
       _init_display_controller
         _clcd_write
         _send_nibble
     _init_digital_keypad
     _init_timer2
   _power_on_screen
     _clcd_print
     _clcd_putch
       ___awdiv (ARG)
       ___awmod (ARG)
       _clcd_write (ARG)
   _read_digital_keypad
   _run_program
     ___awdiv
     ___awmod
     ___flge
       ___flmul (ARG)
         __Umul8_16
         ___xxtofl (ARG)
       ___flsub (ARG)
         ___fladd
         ___flmul (ARG)
         ___xxtofl (ARG)
       ___xxtofl (ARG)
     ___flmul
     ___flsub
     ___fltol
       ___flmul (ARG)
       ___xxtofl (ARG)
     ___wmul
     ___xxtofl
     _clcd_print
     _clcd_putch
     _clear_screen
     _door_status_check
       _clcd_print
       _clear_screen
   _set_time
   _washing_program_display
     _clcd_print
     _clcd_putch
     _clear_screen
   _water_level_screen
     ___awmod
     _clcd_print
     _clcd_putch
     _clear_screen

 _isr (ROOT)

Address spaces:
Name               Size   Autos  Total    Usage
BANK3               96      0       0      0.0%
BITBANK3            96      0       0      0.0%
BANK2               96      0       0      0.0%
BITBANK2            96      0       0      0.0%
BANK1               80      7      51     63.7%
BITBANK1            80      0       0      0.0%
BANK0               80     67      77     96.2%
BITBANK0            80      0       0      0.0%
COMMON              14      9      12     85.7%
BITCOMMON           14      0       0      0.0%
DATA                 0      0     138      0.0%
STACK                0      0       0      0.0%


Microchip Technology PIC Macro Assembler V3.00 build 20241204225717 
Symbol Table                                                                                   Sat Jun 28 10:37:46 2025

                              pc 0002                   clcd_print@addr 0022                               l43 07FC  
                             l65 0C36                               l91 1467                               l59 0BEE  
                             l94 14FB                               l97 164A                     ___awdiv@sign 0021  
                             fsr 0004              ___wmul@multiplicand 0074              __Umul8_16@word_mpld 0022  
                            l100 080D                              l103 1450                              l130 15F3  
                            l116 140E                              l109 1557                              l142 1417  
                            l214 087C                              l207 1428                              l231 17FF  
                            l129 15F4                              l225 0ADD                              l331 0D3B  
                            l307 0CE4                              l324 0D24                              l260 0C47  
                            l317 0D07                              l350 0DA7                              l249 042A  
                            l354 16CA                              l290 0CB5                              l282 0C9D  
                            l443 14BA                              l347 0D6F                              l356 16D0  
                            l292 0CB5                              l284 0C9D                              l621 089B  
                            l445 14D2                              l357 16FF                              l624 0907  
                            l609 16A1                              l644 07CD                              l629 0920  
                            l637 07E2                              l750 0E5F                              l647 07E2  
                            l840 076C                              l744 0E05                              l739 0DD4  
                            l596 1764                              l852 0762                              l748 0E86  
                            l861 1524                              l765 0F52                              l757 0FFF  
                            l846 06DE                              l790 14AD                              l775 0F99  
                            l769 0F76                              l786 0FF5                              l778 0FD5  
                            l890 0984                              l859 1512                              l787 0FFF  
                            l884 0945                              l885 0956                              l886 09D6  
                            l897 09A0                              l898 09AC                              _GIE 005F  
                            _RB0 0030                              _RC1 0039                              _RC2 003A  
                            _RE1 0049                              _RE2 004A                              _PR2 0092  
                            _min 0067                              _sec 0068                              _isr 1558  
                 clcd_putch@addr 0078                              fsr0 0004                   clcd_putch@data 0024  
                            indf 0000                     ___awmod@sign 0077                     ___flmul@aexp 0038  
                   ___flmul@bexp 003D                     ___flmul@sign 0037                     ___flmul@temp 0042  
                   ___flmul@prod 003E                      _run_program 004B                     ___fltol@exp1 0077  
                           l3001 0DD8                             l3011 0DE8                             l3003 0DDE  
                           l3101 0ED5                             l3013 0DED                             l3021 0DFD  
                           l3005 0DDF                             l3111 0F35                             l3103 0EED  
                           l3031 0E15                             l3023 0E0B                             l3015 0DF2  
                           l3007 0DE3                             l3201 143F                             l3121 0F68  
                           l3105 0F2B                             l3113 0F44                             l3041 0E1F  
                           l3033 0E17                             l3025 0E0F                             l3017 0DFA  
                           l3009 0DE7            ??_read_digital_keypad 0072                             l3131 0F80  
                           l3123 0F71                             l3115 0F5A                             l3107 0F2D  
                           l3051 0E29                             l3043 0E21                             l3035 0E19  
                           l3027 0E11                             l3019 0DFB                             l3211 16BD  
                           l3203 16A2                             l3301 1676                             l3141 0F90  
                           l3133 0F85                             l3125 0F75                             l3117 0F5F  
                           l3109 0F30                             l3061 0E47                             l3053 0E2B  
                           l3045 0E23                             l3037 0E1B                             l3029 0E13  
                           l3221 14AE                             l3213 16D3                             l3205 16A8  
                           l4101 011A                             l4031 1703                             l3311 1698  
                           l3303 1680                             l3151 0FB1                             l3143 0F96  
                           l3127 0F7A                             l3135 0F87                             l3071 0E75  
                           l3063 0E63                             l3055 0E2D                             l3047 0E25  
                           l3039 0E1D                             l3231 14CE                             l3223 14B0  
                           l3215 16D8                             l3207 16AB                             l4111 01A2  
                           l4103 0127                             l4041 1717                             l4033 1707  
                           l3313 169D                             l3305 1686                             l3321 08AF  
                           l3401 0459                             l3161 0FE7                             l3153 0FB5  
                           l3129 0F7E                             l3137 0F8B                             l3073 0E7E  
                           l3065 0E6C                             l3049 0E27                             l3057 0E2F  
                           l3225 14B4                             l3217 16E5                             l3209 16B0  
                           l4121 022C                             l4113 01E2                             l4105 0134  
                           l4201 0B63                             l4051 172B                             l4043 1719  
                           l4035 170C                             l3307 168D                             l3331 091D  
                           l3323 08B7                             l3411 046C                             l3403 045D  
                           l3171 0FFA                             l3163 0FEC                             l3155 0FD3  
                           l3147 0F9E                             l3139 0F8C                             l3091 0EC2  
                           l3083 0E9A                             l3067 0E6E                             l3075 0E80  
                           l3059 0E30                             l3227 14C1                             l3219 16F2  
                           l4131 0276                             l4123 0230                             l4115 0222  
                           l4107 0141                             l4211 0B89                             l4203 0B68  
                           l4061 1749                             l4053 172D                             l4045 171B  
                           l4037 170E                             l4029 1700                             l3309 1693  
                           l3333 091F                             l3325 08BB                             l3317 087D  
                           l3181 150C                             l3501 0726                             l3421 0488  
                           l3413 0474                             l3405 0461                             l3173 0FFE  
                           l3165 0FED                             l3157 0FDA                             l3149 0FA3  
                           l3093 0EC4                             l3085 0EB3                             l3077 0E8A  
                           l3069 0E74                             l3229 14C8                             l4141 0336  
                           l4133 02A7                             l4125 024A                             l4117 0225  
                           l4109 0161                             l4221 0BA7                             l4213 0B90  
                           l4205 0B71                             l3191 0806                             l4063 1750  
                           l4055 1731                             l4047 1721                             l4039 1712  
                           l3327 08DF                             l3319 0893                             l3183 151B  
                           l3175 14FF                             l3511 0758                             l3503 0731  
                           l3431 04C7                             l3415 0476                             l3407 0462  
                           l3167 0FF1                             l3159 0FDF                             l3095 0EC8  
                           l3087 0EB7                             l3079 0E8F                             l3351 079F  
                           l3343 0781                             l4143 0344                             l4135 02B3  
                           l4151 036F                             l4127 0250                             l4119 0226  
                           l4223 0BAC                             l4231 0BD9                             l4215 0B95  
                           l4207 0B75                             l3193 0807                             l4057 1742  
                           l4049 1724                             l4065 1756                             l3281 164C  
                           l3329 08E3                             l3185 1520                             l3177 1501  
                           l3513 075C                             l3505 0740                             l3441 054E  
                           l3433 04E3                             l3425 0491                             l3417 047E  
                           l3409 0467                             l3169 0FF3                             l3097 0EC9  
                           l3089 0EBB                             l3353 07A3                             l3361 07BB  
                           l3345 0794                             l3337 076D                             l3521 0924  
                           l4161 03E3                             l4153 038A                             l4145 0352  
                           l4129 026A                             l4137 02BF                             l4081 006D  
                           l4073 004E                             l4241 0C01                             l4233 0BE1  
                           l4225 0BB9                             l4217 0B9D                             l4209 0B83  
                           l3195 0808                             l3611 15E3                             l3603 15D0  
                           l4067 175B                             l4059 1748                             l3291 1660  
                           l3283 1650                             l3179 1508                             l3515 075D  
                           l3507 074A                             l3451 05BB                             l3443 055C  
                           l3435 050D                             l3427 049F                             l3419 0483  
                           l3099 0ED2                             l3371 07D7                             l3347 0795  
                           l3339 0778                             l3523 0929                             l4171 03F8  
                           l4163 03EA                             l4155 03A5                             l4147 0358  
                           l4139 02C5                             l4091 00CD                             l4083 0082  
                           l4075 0053                             l4243 0C09                             l4235 0BE9  
                           l4227 0BC6                             l4219 0BA5                             l3189 0802  
                           l3197 1409                             l3613 15E9                             l3605 15D5  
                           l3621 15F3                             l4069 1760                             l3293 1666  
                           l3285 1655                             l3517 0764                             l3509 074C  
                           l3461 0662                             l3453 05D8                             l3445 0579  
                           l3437 0529                             l3429 04AC                             l3381 042F  
                           l3373 148A                             l3349 079D                             l3541 097B  
                           l3533 0959                             l3525 092D                             l4181 0423  
                           l4173 0403                             l4165 03EF                             l4157 03AD  
                           l4149 0364                             l4093 00E8                             l4085 008F  
                           l4077 005B                             l3701 0CA4                             l4245 0C10  
                           l4237 0BEF                             l4229 0BD3                             l4253 0C26  
                           l3199 140F                             l3631 0811                             l3615 15EF  
                           l3607 15DB                             l3295 1669                             l3287 1657  
                           l3279 164B                             l3471 06AE                             l3463 068A  
                           l3455 0603                             l3447 0587                             l3439 0545  
                           l3391 043F                             l3383 0431                             l3375 148E  
                           l3367 07C2                             l3359 07AB                             l3551 09AE  
                           l3543 098B                             l3535 0964                             l3527 093D  
                           l4183 0425                             l4175 0410                             l4167 03F4  
                           l4159 03C8                             l4095 0103                             l4087 00AA  
                           l4079 0060                             l3711 0CCD                             l4247 0C16  
                           l4239 0BF8                             l4191 0AFD                             l3641 084A  
                           l3633 081A                             l3625 080E                             l3617 15F1  
                           l3609 15DE                             l3297 1670                             l3289 165B  
                           l3481 06C3                             l3473 06AF                             l3465 0693  
                           l3457 0611                             l3449 05A4                             l3393 0444  
                           l3385 0435                             l3369 07D2                             l3553 09C4  
                           l3545 0996                             l3537 096B                             l3529 094D  
                           l4177 041E                             l4169 03F7                             l4097 0107  
                           l4089 00C5                             l3721 0CE7                             l3713 0CD0  
                           l3705 0CBC                             l3801 09F6                             l4249 0C1D  
                           l4193 0B0B                             l4185 0ADE                             l3571 07F4  
                           l3563 07E3                             l3651 0864                             l3635 0828  
                           l3299 1672                             l3491 06E8                             l3483 06C7  
                           l3475 06B8                             l3467 06A1                             l3459 063C  
                           l3395 044C                             l3387 0439                             l3379 042B  
                           l3555 09C9                             l3547 099A                             l3539 096D  
                           l4179 0421                             l4099 0115                             l3731 0D01  
                           l3811 0A18                             l3803 09FC                             l4195 0B15  
                           l4187 0AE3                             l2941 1462                             l2933 1452  
                           l3573 07F7                             l3565 07ED                             l3653 0868  
                           l3637 082C                             l3581 15A9                             l3493 06F6  
                           l3485 06DB                             l3469 06AA                             l3477 06BE  
                           l3397 044E                             l3389 043A                             l3557 09CD  
                           l3549 09A4                             l3741 0D1E                             l3733 0D04  
                           l3725 0CEA                             l3717 0CD3                             l3661 0C3E  
                           l3813 0A58                             l3805 09FD                             l3821 1768  
                           l4197 0B53                             l4189 0AF0                             l2935 1459  
                           l2943 14D4                             l3575 07F8                             l3567 07F2  
                           l2951 1525                             l3655 086E                             l3647 084D  
                           l3639 0832                             l3591 15BB                             l3583 15AB  
                           l3495 06FA                             l3479 06C2                             l3399 0456  
                           l3559 09CE                             l3751 0D2A                             l3743 0D21  
                           l3735 0D0B                             l3727 0CFB                             l3719 0CE4  
                           l3671 0C5D                             l3663 0C41                             l3815 0A5E  
                           l3807 0A0A                             l3831 1782                             l3823 176E  
                           l4199 0B5E                             l2937 145A                             l2945 14DF  
                           l3577 07FB                             l3569 07F3                             l2953 152F  
                           l3649 0856                             l3593 15C1                             l3585 15B1  
                           l3497 0713                             l3489 06E3                             l2961 141F  
                           l3761 0D52                             l3753 0D3B                             l3745 0D24  
                           l3729 0CFE                             l3681 0C6C                             l3673 0C60  
                           l3665 0C44                             l3657 0C3A                             l3817 0A9C  
                           l3809 0A12                             l3841 17A0                             l3833 1784  
                           l3825 1773                             l2939 145F                             l2947 14E6  
                           l2971 1618                             l2963 15F5                             l2955 153F  
                           l3595 15C6                             l3587 15B6                             l3579 15A5  
                           l3499 0719                             l3763 0D55                             l3755 0D3E  
                           l3747 0D27                             l3739 0D0D                             l3691 0C86  
                           l3675 0C63                             l3659 0C3B                             l3819 0AA2  
                           l3843 17B5                             l3835 178A                             l3827 1777  
                           l2949 14F6                             l2973 1623                             l2965 15FE  
                           l2957 1547                             l3597 15C8                             l3589 15B8  
                           l2981 0DAE                             l3765 0D58                             l3693 0C89  
                           l3685 0C6F                             l3677 0C66                             l3669 0C4C  
                           l3845 17DA                             l3829 177D                             l3837 178B  
                           l2975 1629                             l2967 1604                             l3599 15CE  
                           l2991 0DC1                             l2983 0DB2                             l2959 1418  
                           l3783 0D70                             l3775 0D5E                             l3767 0D5B  
                           l3759 0D41                             l3687 0C80                             l3679 0C69  
                           l3791 09E0                             l3839 1798                             l2969 1613  
                           l2993 0DC9                             l2985 0DB6                             l2977 0DA8  
                           l3697 0C8C                             l3689 0C83                             l3793 09E5  
                           l2995 0DCA                             l2987 0DB7                             l2979 0DAC  
                           l3787 0D81                             l3795 09E9                             l2989 0DBC  
                           l2997 0DCC                             l3797 09EF                             l3789 09DA  
                           l2999 0DD6                             l3799 09F4                             ?_isr 0070  
                           STR_1 1060                             STR_2 1114                             STR_3 1042  
                           STR_4 1095                             STR_5 10CF                             STR_6 10F8  
                           STR_7 114B                             STR_8 1151                             STR_9 10DA  
                           u4000 0FD3                             u4001 0FD2                             u4010 0FDA  
                           u4011 0FD9                             u4020 0FDF                             u4100 16D0  
                           u4021 0FDE                             u4101 16CF                             u4030 0FEC  
                           u4110 14B4                             u4031 0FEB                             u4111 14B3  
                           u4040 0FF1                             u5000 09C9                             u4041 0FF0  
                           u5001 09C8                             u4050 0FFE                             u5010 09CD  
                           u4051 0FFD                             u5011 09CC                             u5100 15E9  
                           u5020 15B1                             u4300 1680                             u4060 150C  
                           u4140 14CE                             u5101 15E8                             u5021 15B0  
                           u4301 167F                             u4061 150B                             u4141 14CD  
                           u4125 14BB                             u5110 15EF                             u5030 15B6  
                           u5111 15EE                             u5031 15B5                             u4135 14C2  
                           u5120 0832                             u5040 15C1                             u4320 1693  
                           u4400 091D                             u4080 1520                             u3600 0DB6  
                           u5200 176E                             u5121 0831                             u5041 15C0  
                           u4321 1692                             u4305 167C                             u4401 091C  
                           u4081 151F                             u3601 0DB5                             u5201 176D  
                           u5130 086E                             u5050 15C6                             u4330 1698  
                           u4250 1650                             u3610 0DBC                             u4410 0778  
                           u4090 16A8                             u5210 177D                             u5131 086D  
                           u5051 15C5                             u4331 1697                             u4315 1687  
                           u4251 164F                             u4075 1513                             u3611 0DBB  
                           u4411 0777                             u4091 16A7                             u5211 177C  
                           u5060 15CE                             u4260 165B                             u4340 0893  
                           u3700 0E52                             u3620 0DC1                             u4500 07D7  
                           u4420 078F                             u5140 09E0                             u5220 178A  
                           u5061 15CD                             u4261 165A                             u4405 0919  
                           u4341 0892                             u3701 0E50                             u3621 0DC0  
                           u4501 07D6                             u5141 09DF                             u5221 1789  
                           u5070 15D5                             u4270 1666                             u4350 08AF  
                           u4510 0439                             u3710 0E53                             u3630 0DDE  
                           u4430 07A3                             u5150 09EF                             u5071 15D4  
                           u4271 1665                             u4351 08AE                             u4511 0438  
                           u3631 0DDD                             u4431 07A2                             u5151 09EE  
                           u3560 14DC                             u5080 15DB                             u4360 08BB  
                           u4520 043F                             u3800 0EBB                             u3720 0E63  
                           u3640 0DE7                             u4440 07AA                             u5160 09FC  
                           u3561 14D8                             u5081 15DA                             u4361 08BA  
                           u4601 04F1                             u4521 043E                             u3801 0EBA  
                           u3721 0E62                             u3641 0DE6                             u4441 07A9  
                           u4425 078A                             u5161 09FB                             u5090 15E3  
                           u4290 1676                             u4602 04F8                             u4530 0444  
                           u3810 0EC8                             u3730 0E74                             u3650 0DED  
                           u5170 0A18                             u5091 15E2                             u4291 1675  
                           u4371 08CA                             u4611 051B                             u4603 04FF  
                           u4531 0443                             u3811 0EC7                             u3731 0E73  
                           u3651 0DEC                             u5171 0A17                             _PEIE 005E  
                           u4380 08E3                             u4372 08CB                             u4700 0648  
                           u4612 0522                             u4540 0461                             u3900 0F75  
                           u3660 0DF2                             u4460 07BA                             u5180 0A5E  
                           u4285 166A                             u4381 08E2                             u4373 08D0  
                           u4621 0537                             u4613 0529                             u4541 0460  
                           u3901 0F74                             u3661 0DF1                             u4461 07B9  
                           u5181 0A5D                             u3574 14DF                             u3590 1557  
                           u5510 1742                             u4374 08D1                             u4622 053E  
                           u4550 0467                             u3910 0F7A                             u3830 0EED  
                           u3750 0E86                             u3670 0E0B                             u4470 07C1  
                           u5190 0AA2                             u3591 1556                             u5511 1741  
                           u4391 08F2                             u4375 08D6                             u4711 0654  
                           u4623 0545                             u4551 0466                             u3911 0F79  
                           u3831 0EEC                             u3751 0E85                             u3671 0E0A  
                           u4471 07C0                             u4455 07AC                             u5191 0AA1  
                           u4392 08F3                             u4376 08D7                             u4800 06DB  
                           u4720 0670                             u4712 065B                             u4560 046C  
                           u3920 0F85                             u3760 0E8A                             u3680 0E0F  
                           u5600 02C5                             u3585 14E9                             u5505 1732  
                           u4393 08F8                             u4801 06DA                             u4713 0662  
                           u4705 0643                             u4641 056B                             u4561 046B  
                           u3921 0F84                             u3841 0F04                             u3833 0EE9  
                           u3825 0ECB                             u3761 0E89                             u3745 0E77  
                           u3681 0E0E                             u5601 02C4                             u5530 1756  
                           u5450 1707                             u4394 08F9                             u4810 06E2  
                           u4642 0572                             u4570 0483                             u3930 0F8B  
                           u3850 0F18                             u3842 0F05                             u3770 0E8F  
                           u3690 0E47                             u4490 07D2                             u5610 0336  
                           u5531 1755                             u5515 173E                             u5451 1706  
                           u4395 08FE                             u4811 06E1                             u4731 067C  
                           u4651 0596                             u4643 0579                             u4635 0547  
                           u4571 0482                             u3931 0F8A                             u3851 0F19  
                           u3843 0F0A                             u3771 0E8E                             u3691 0E46  
                           u4491 07D1                             u5611 0335                             u5540 175B  
                           u5460 1712                             u4396 08FF                             u4820 06E8  
                           u4732 0683                             u4652 059D                             u4580 0488  
                           u3940 0F90                             u3860 0F35                             u3852 0F1E  
                           u3844 0F0B                             u4900 094D                             u5620 0358  
                           u5700 0B90                             u5541 175A                             u5525 174A  
                           u5461 1711                             u4821 06E7                             u4733 068A  
                           u4725 066B                             u4653 05A4                             u4581 0487  
                           u3941 0F8F                             u3861 0F34                             u3853 0F1F  
                           u3845 0F10                             u3781 0EA5                             u4485 07C4  
                           u4901 094C                             u5621 0357                             u5701 0B8F  
                           u5470 1721                             u4830 06FA                             u3950 0F96  
                           u3870 0F5A                             u3846 0F11                             u3790 0EB7  
                           u3782 0EAC                             u5630 03EA                             u5550 005B  
                           u5710 0B9D                             u5471 1720                             u4831 06F9  
                           u4671 05CA                             u4591 04D5                             u3951 0F95  
                           u3871 0F59                             u3791 0EB6                             u3783 0EB3  
                           u3695 0E43                             u5631 03E9                             u5551 005A  
                           u5711 0B9C                             u4840 0709                             u4760 06AE  
                           u4672 05D1                             u4592 04DC                             u3960 0F9D  
                           u3880 0F5F                             u4920 096A                             u5640 03EF  
                           u5560 022C                             u5720 0BA5                             u4761 06AD  
                           u4745 068C                             u4681 05F5                             u4673 05D8  
                           u4665 05A6                             u4593 04E3                             u3961 0F9C  
                           u3881 0F5E                             u4921 0969                             u5641 03EE  
                           u5561 022B                             u5721 0BA4                             u5490 1731  
                           u4850 0726                             u4682 05FC                             u3970 0FA3  
                           u5570 0250                             u5730 0BE1                             u5650 0B41  
                           u5491 1730                             u4851 0725                             u4755 06A3  
                           u4691 0620                             u4683 0603                             u3971 0FA2  
                           u4915 095C                             u5571 024F                             u5731 0BE0  
                           u4860 0740                             u4780 06C2                             u4692 0627  
                           u3980 0FB5                             u4940 098A                             u5580 026A  
                           u5740 0BE9                             u5660 0B53                             u5485 1725  
                           u4861 073F                             u4845 0704                             u4781 06C1  
                           u4693 062E                             u3981 0FB4                             u4941 0989  
                           u5581 0269                             u5741 0BE8                             u5661 0B52  
                           u4870 075C                             u4790 06C7                             u3990 0FC4  
                           u5590 02A7                             u5750 0C09                             u5670 0B5E  
                           u5807 0822                             u4871 075B                             u4855 0722  
                           u4791 06C6                             u4775 06B1                             u3895 0F6A  
                           u4935 097C                             u5591 02A6                             u5751 0C08  
                           u5671 0B5D                             u5655 0B2A                             u4960 099A  
                           u4880 0929                             u5760 0C16                             u5680 0B83  
                           u5656 0B2D                             u5817 085E                             u4865 073C  
                           u4961 0999                             u4881 0928                             u5585 0266  
                           u5761 0C15                             u5681 0B82                             u5657 0B34  
                           u4970 09A0                             u4890 092D                             u5690 0B89  
                           u5658 0B37                             u5907 1464                             u5827 0876  
                           u3995 0FBF                             u4971 099F                             u4955 098F  
                           u4891 092C                             u5595 02A3                             u5691 0B88  
                           u5659 0B3E                             u4980 09A4                             u5837 15F9  
                           u4981 09A3                             u4990 09B9                             u5847 1608  
                           u5857 1615                             u5777 010F                             u5867 1620  
                           u4995 09B4                             u5787 0418                             u5877 162B  
                           u5797 1423                             u5887 14F8                             u5897 145C  
                           _main 0ADE                             _time 0063                             btemp 007E  
                           start 000C                   clcd_write@byte 0076                   clcd_write@mode 0074  
                   main@delay_93 00D0          __end_of_power_on_screen 087D        ??_washing_program_display 0025  
                          ??_isr 0070                    ___fltol@sign1 0076                  __end_of___fladd 1000  
                          ?_main 0070                  __end_of___awdiv 1765                            STR_10 112C  
                          STR_11 10B9                            STR_20 116B                            STR_12 10A2  
                          STR_21 1125                            STR_13 111D                            STR_30 1102  
                          STR_22 115C                            STR_14 10C4                            STR_31 1157  
                          STR_23 116F                            STR_15 10EE                            STR_24 106E  
                          STR_40 1022                            STR_32 1012                            STR_16 110B  
                          STR_25 1042                            STR_33 1161                            STR_41 1052  
                          STR_17 10E4                            STR_34 1145                            STR_42 1088  
                          STR_26 1032                            STR_18 10AE                            STR_35 1133  
                          STR_27 107B                            STR_43 1000                            STR_19 1166  
                          STR_36 1145                            STR_44 1102                            STR_28 113F  
                __end_of___awmod 16A2                            STR_37 1133                            STR_45 1157  
                          STR_29 1139                            STR_38 1133                            STR_46 1012  
                          STR_39 10BF                  __end_of___flmul 076D                  __end_of___flsub 14AE  
                __end_of___fltol 07E3                  ___awdiv@divisor 0072                            i1l160 159E  
                   ?_init_config 0070                  ___awdiv@counter 0020                            _PORTB 0006  
                          _PORTD 0008                            _TRISB 0086                            _TRISD 0088  
                   ?_init_timer2 0070             __end_of_clear_screen 1429                            _level 0079  
                          pclath 000A                            status 0003                            wtemp0 007E  
                __initialization 000F                     __end_of_main 0C3A                           ??_main 005F  
                 run_program@key 005E  __end_of_washing_program_display 0ADE                     ?_send_nibble 0070  
               ___awdiv@dividend 0074                           i1l2921 1583                           i1l2913 1558  
                         i1l2923 1588                           i1l2931 159B                           i1l2915 155E  
                         i1l2925 158D                           i1l2917 1579                           i1l2927 158F  
                         i1l2919 1580                           i1l2929 1591                           u351_20 155E  
                         u351_21 155D                           u352_20 1579                           u352_21 1578  
                         u353_20 1580                           u353_21 157F                           u354_20 1588  
                         u354_21 1587                           u355_20 158D                           u355_21 158C  
                         _TMR2IE 0461                           _TMR2IF 0061                           _TMR2ON 0092  
                         _TRISC1 0439                           _TRISC2 043A                           _TRISE1 0449  
                         _TRISE2 044A                 __end_of___xxtofl 09D7      __end_of_init_digital_keypad 140F  
                         ___flge 087D          _init_display_controller 15F5                        ??___fladd 0028  
                         ___wmul 14AE                        ??___awdiv 0076                 ?_power_on_screen 0070  
                      ??___awmod 0076                        ??___flmul 0032                        ??___flsub 0076  
                      ??___fltol 0048                 ___awdiv@quotient 0022                  ___awmod@divisor 0072  
                ___awmod@counter 0076                     __pdataCOMMON 007B                 __end_of_set_time 0DA8  
                         saved_w 007E                       ___flge@ff1 004C                       ___flge@ff2 0050  
                   ___xxtofl@arg 0026                     ___xxtofl@exp 0025                     ___xxtofl@val 0072  
        __end_of__initialization 0047                       ___fltol@f1 0044                   __pcstackCOMMON 0070  
                   __pidataBANK0 07FD                     __pidataBANK1 1468                     ?_run_program 0070  
                     __pbssBANK0 0063                       __pbssBANK1 00C2        ??_init_display_controller 0077  
                     _clcd_print 1525                       _clcd_putch 143C                       _clcd_write 14D3  
              __end_of__Umul8_16 1525                       __pmaintext 0ADE                     _clear_screen 1418  
                        ?___flge 004C                          ?___wmul 0072                       __pintentry 0004  
    __end_of_read_digital_keypad 15F5                        ?___xxtofl 0072                       __stringtab 1173  
                      ?_set_time 0070                          ___fladd 0DA8                          ___awdiv 1700  
                        ___awmod 164B                          ___flmul 042B                          ___flsub 148A  
                        ___fltol 076D                          __ptext1 1765                          __ptext2 09D7  
                        __ptext3 0C3A                          __ptext4 004B                          __ptext5 16A2  
                        __ptext6 1418                          __ptext7 0921                          __ptext8 14AE  
                        __ptext9 076D  __end_of_init_display_controller 164B                __end_of_init_clcd 080E  
         read_digital_keypad@key 0072                       ??___xxtofl 0020                 ___awmod@dividend 0074  
                        main@key 00D2             end_of_initialization 0047                      ?_clcd_print 0020  
                    ?_clcd_putch 0078                      ?_clcd_write 0074         ?_washing_program_display 0070  
                     _reset_flag 006B                       ??_set_time 0072                send_nibble@nibble 0073  
                   __pstringtext 1000                       _rinse_time 00C8                      ___fladd@grs 0075  
     washing_program_display@key 0027                       _program_no 007A                    ___xxtofl@sign 0024  
                  clcd_print@str 0020                      ___flmul@grs 0039                       _total_time 0065  
                 __end_of___flge 0921                   __end_of___wmul 14D3                    __pidataCOMMON 0003  
            start_initialization 000F                      __end_of_isr 15A5            water_level_screen@key 0027  
                       ??___flge 0054                         ??___wmul 0076                       init_fetch0 1429  
                      __Umul8_16 14FC       __end_of_water_level_screen 1800                      __pdataBANK0 006A  
                    __pdataBANK1 00A0       read_digital_keypad@pre_key 0069                    ??_init_config 0079  
                      ___fladd@a 0024                        ___fladd@b 0020                    ??_init_timer2 0072  
                      ___flmul@a 002E                        ___flmul@b 002A                      __pbssCOMMON 0079  
                      ___flsub@a 0044                        ___flsub@b 0048                        ___latbits 0002  
                  __pcstackBANK0 0020                    __pcstackBANK1 00CC             power_on_screen@i_196 0029  
                       ?___fladd 0020                         ?___awdiv 0072                         ?___awmod 0072  
                       ?___flmul 002A                         ?___flsub 0044                         ?___fltol 0044  
                     ?__Umul8_16 0072                        __pstrings 1173                    ??_send_nibble 0072  
                      _init_clcd 0802              __end_of_init_config 07FD   read_digital_keypad@longpressed 006A  
              ??_power_on_screen 0025              __end_of_init_timer2 1418                  _washing_program 00A0  
       ?_init_display_controller 0070                interrupt_function 0004                   ___wmul@product 0076  
                   ??_clcd_print 0078                     ??_clcd_putch 0079                     ??_clcd_write 0075  
                      _wash_time 00CA                        _spin_time 00C6                      __stringbase 1185  
              ___wmul@multiplier 0072                        main@delay 00CC               __end_of_clcd_print 1558  
             __end_of_clcd_putch 1451               __end_of_clcd_write 14FC                       ?_init_clcd 0070  
            _init_digital_keypad 1409              __end_of_send_nibble 1468                      ??__Umul8_16 0074  
           ?_init_digital_keypad 0070               __end_of__stringtab 1185                      _init_config 07E3  
                       ___xxtofl 0921                 _operational_mode 006C                      _init_timer2 140F  
                  ??_run_program 0058                         __ptext10 148A                         __ptext11 0DA8  
                       __ptext20 1525                         __ptext12 042B                         __ptext21 07E3  
                       __ptext13 14FC                         __ptext22 140F                         __ptext14 087D  
                       __ptext23 1409                         __ptext15 164B                         __ptext24 0802  
                       __ptext16 1700                         __ptext25 15F5                         __ptext17 15A5  
                       __ptext26 14D3                         __ptext18 080E                         __ptext27 1451  
                       __ptext19 143C                         __ptext28 1558          read_digital_keypad@mode 0070  
        read_digital_keypad@once 007B                    ?_clear_screen 0070                         _set_time 0C3A  
          ??_init_digital_keypad 0072                _door_status_check 16A2               ?_door_status_check 0070  
                       isr@count 00C2              ??_door_status_check 0079                         init_ram0 142D  
             _water_level_screen 1765                      ??_init_clcd 0079                      _send_nibble 1451  
                       intlevel1 0000              ?_water_level_screen 0070              __end_of_run_program 042B  
                      stringcode 117D                   ??_clear_screen 0077        __end_of_door_status_check 1700  
            _read_digital_keypad 15A5             ??_water_level_screen 0025          _washing_program_display 09D7  
         __Umul8_16@multiplicand 0072                  _power_on_screen 080E                         stringtab 1173  
                  ___fladd@signs 0072             ?_read_digital_keypad 0070                 power_on_screen@i 0028  
                    _water_level 00B8                     ___fladd@aexp 0073                     ___fladd@bexp 0074  
           __Umul8_16@multiplier 0024                __Umul8_16@product 0020  
